ARM GAS  C:\Users\prana\AppData\Local\Temp\ccNLz197.s 			page 1


   1              		.syntax unified
   2              		.cpu cortex-m0
   3              		.fpu softvfp
   4              		.eabi_attribute 20, 1
   5              		.eabi_attribute 21, 1
   6              		.eabi_attribute 23, 3
   7              		.eabi_attribute 24, 1
   8              		.eabi_attribute 25, 1
   9              		.eabi_attribute 26, 1
  10              		.eabi_attribute 30, 4
  11              		.eabi_attribute 34, 0
  12              		.eabi_attribute 18, 4
  13              		.thumb
  14              		.syntax unified
  15              		.file	"CyFlash.c"
  16              		.text
  17              	.Ltext0:
  18              		.section	.gnu.lto_.profile.b369ff27,"",%progbits
  19 0000 789C6361 		.ascii	"x\234ca`d`c`\000\222?\031\0273\002\000\005\302\001\253"
  19      60646063 
  19      6000923F 
  19      19173302 
  19      0005C201 
  20              		.text
  21              		.section	.gnu.lto_.icf.b369ff27,"",%progbits
  22 0000 789C6361 		.ascii	"x\234ca`d\000\0015\006\004`cxx\352\321.V\306\353k\327"
  22      60640001 
  22      35060460 
  22      637878EA 
  22      D12E56C6 
  23 0017 3C64655A 		.ascii	"<deZ}a\306j.\346y\233\337\274ga9\370z\333sF\326\257"
  23      7D61C66A 
  23      2EE6799B 
  23      DFBC6761 
  23      39F87ADB 
  24 002f 6B1F1E62 		.ascii	"k\037\036bf\000\000x8\023-"
  24      66000078 
  24      38132D
  25              		.text
  26              		.section	.gnu.lto_.jmpfuncs.b369ff27,"",%progbits
  27 0000 789C6361 		.ascii	"x\234ca`d\000\2018\006\004`\005b&\006\006f\006\006\026"
  27      60640081 
  27      38060460 
  27      05622606 
  27      06660606 
  28 0015 264646E6 		.ascii	"&FF\346\372z&\250\004\033\003\003#\013\003S%#P\017\343"
  28      FA7A26A8 
  28      041B0303 
  28      230B0353 
  28      2523500F 
  29 002a 5F26C66D 		.ascii	"_&\306m\317N\036\343\372\302\324\312\314\300\330\300"
  29      CF4E1EE3 
  29      FAC2D4CA 
  29      CCC0D8C0 
  30 003a C8B89C51 		.ascii	"\310\270\234Q\006\250\227\221\221\021\254\236\011\244"
  30      06A89791 
  30      9111AC9E 
ARM GAS  C:\Users\prana\AppData\Local\Temp\ccNLz197.s 			page 2


  30      09A4
  31 0048 60FD9B9D 		.ascii	"`\375\233\235?yA\012\200:\030W\200\344\031\030\000v"
  31      3F79410A 
  31      803A1857 
  31      80E41918 
  31      0076
  32 005a E31028   		.ascii	"\343\020("
  33              		.text
  34              		.section	.gnu.lto_.inline.b369ff27,"",%progbits
  35 0000 789C6D8F 		.ascii	"x\234m\2171J\003A\030\205\337\233\231\354\016.nV\203"
  35      314A0341 
  35      1885DF9B 
  35      99EC0E2E 
  35      6E5683
  36 0013 8D043282 		.ascii	"\215\0042\202\205\225x\204=A\256\241\350\005,\267\011"
  36      85957884 
  36      3D41AEA1 
  36      E8052CB7 
  36      09
  37 0024 A45C4144 		.ascii	"\244\\ADDa\013AM\016 \250\240X\010\202A\261\210\007"
  37      44610B41 
  37      4D0E20A8 
  37      A0580882 
  37      41B18807 
  38 0038 B04919C1 		.ascii	"\260I\031\301R\321\231\235]m\362\027\377\373y\3370\274"
  38      52D1999D 
  38      5D6DF217 
  38      FFFB79DF 
  38      30BC
  39 004a A740B839 		.ascii	"\247@\2709\366RN\003zi\201\020\253w\023\"(:\302\231"
  39      F6524E03 
  39      7A698110 
  39      AB771322 
  39      283AC299 
  40 005e 02ADA6F5 		.ascii	"\002\255\246\365L\361\370\357\311\031\357T\3161\332"
  40      4CF1F8EF 
  40      C919EF54 
  40      CE31DA
  41 006d 0C6036BF 		.ascii	"\014`6\277\005o\307_o\362S\364\244\340\217\344\031\333"
  41      056FC75F 
  41      6FF253F4 
  41      A4E08FE4 
  41      19DB
  42 007f 80D92A95 		.ascii	"\200\331*\225f\307\362\203\336\375s\350\270$x^\332\333"
  42      66C7F283 
  42      DEFD73E8 
  42      B824785E 
  42      DADB
  43 0091 A5C2D840 		.ascii	"\245\302\330@t+\014\246\353\376wUtR\250\227fF\005\261"
  43      742B0CA6 
  43      EBFE7755 
  43      7452A897 
  43      664605B1 
  44 00a5 3FB786DD 		.ascii	"?\267\206\335\253=&\366\3563\265\342BF\260\007\363\256"
  44      AB3D26F6 
  44      EE33B5E2 
  44      4246B007 
ARM GAS  C:\Users\prana\AppData\Local\Temp\ccNLz197.s 			page 3


  44      F3AE
  45 00b7 3F3053D4 		.ascii	"?0S\324\274\023\211\274k\233.\2570\364Q_\247O'\221\213"
  45      BC1389BC 
  45      6B9B2EAF 
  45      30F4515F 
  45      A74F2791 
  46 00cc A298F0A2 		.ascii	"\242\230\360\242J\352\325\341\217\321\321{\354\261\341"
  46      4AEAD5E1 
  46      8FD1D17B 
  46      ECB1E1
  47 00db A0C2833F 		.ascii	"\240\302\203?|}y\363\320\360x\203\303\012\017\353\""
  47      7C7D79F3 
  47      D0F07883 
  47      C30A0FEB 
  47      22
  48 00ec DA66AB2B 		.ascii	"\332f\253+dv\367[\231\320\266J\224\011\243\241\017\343"
  48      6476F75B 
  48      99D0B64A 
  48      9409A3A1 
  48      0FE3
  49 00fe D4C9244E 		.ascii	"\324\311$N4\202\323\305\272JU$\243\205,\015\340\027"
  49      3482D3C5 
  49      BA4A5524 
  49      A3852C0D 
  49      E017
  50 0110 4608494C 		.ascii	"F\010IL"
  51              		.text
  52              		.section	.gnu.lto_.pureconst.b369ff27,"",%progbits
  53 0000 789C6361 		.ascii	"x\234ca`d\340g```e\330\305\310\264\213\221y\027#\313"
  53      6064E067 
  53      60606065 
  53      D8C5C8B4 
  53      8B917917 
  54 0016 2E465629 		.ascii	".FV)\000\033(\003."
  54      001B2803 
  54      2E
  55              		.text
  56              		.section	.gnu.lto_CySysFlashClockBackup.b369ff27,"",%progbits
  57 0000 789C7D54 		.ascii	"x\234}TKl\023W\024}\367\275\231\361d\374K7]E\010\004"
  57      4B6C1357 
  57      147DF7BD 
  57      99F164FC 
  57      4B375D45 
  58 0016 51C5A651 		.ascii	"Q\305\246Q\020\013\244\252l\220\332\025\037\025\251"
  58      100BA4AA 
  58      6C90DA15 
  58      1F15A9
  59 0025 2B10B2C0 		.ascii	"+\020\262\300j\027\264P\023$\272\312K\3541\244\252("
  59      6A17B450 
  59      1324BACA 
  59      4BEC31A4 
  59      AA28
  60 0037 166ACA37 		.ascii	"\026j\3127\026a\021\314\317\016M\011n\022b\022\223\020"
  60      166111CC 
  60      CF0E4D09 
  60      6E126212 
  60      9310
ARM GAS  C:\Users\prana\AppData\Local\Temp\ccNLz197.s 			page 4


  61 0049 CAA7B4A2 		.ascii	"\312\247\264\242?\250\024>\241R\024Q\033\005\2424$\351"
  61      3FA8143E 
  61      A1521451 
  61      1B05A234 
  61      24E9
  62 005b BDF3C621 		.ascii	"\275\363\306!\361\"O\362\035\277w\357=\347\3343\037"
  62      F1224FF2 
  62      1DBF77EF 
  62      3DE7DC33 
  62      1F
  63 006c 8D01A3D5 		.ascii	"\215\001\243\325\2553\366>^\327\343\017<\014\370\241"
  63      AD33F63E 
  63      5ED7E30F 
  63      3C0CF8A1 
  64 007c 3B8C3598 		.ascii	";\2145\230\234\213\301 \223\2266\264\226I\237\000C\035"
  64      9C8BC120 
  64      939636B4 
  64      96499F00 
  64      431D
  65 008e 6B5CA703 		.ascii	"k\\\247\003\313\240\244O/\035\033\000\364G\232\300\352"
  65      CBA0A44F 
  65      2F1D1B00 
  65      F4479AC0 
  65      EA
  66 009f B9D07403 		.ascii	"\271\320t\003\352\341%\237\346p/\2269!\306\271-\030"
  66      EAE1259F 
  66      E6702F96 
  66      3921C6B9 
  66      2D18
  67 00b1 68B82DDE 		.ascii	"h\270-\336>\366$@[\200\245\270=.\177i\362\254l\223\262"
  67      3EF62440 
  67      5B80A5B8 
  67      3D2E7F69 
  67      F2AC6C93 
  68 00c6 510E5FBF 		.ascii	"Q\016_\277\352K]\372YV\330\202\263Y\316\340\014TA\033"
  68      EA4B5DFA 
  68      5956D882 
  68      B359CEE0 
  68      0C54411B 
  69 00da 5491AA14 		.ascii	"T\221\252\024\254dX}\254k\374\246\256\260L\334v>?\327"
  69      AC64587D 
  69      AC6BFCA6 
  69      AEB04CDC 
  69      763E3FD7 
  70 00ee E9575839 		.ascii	"\351WX9JOO\034\212jb\005\320\377\327\277e\007\274\325"
  70      4A4F4F1C 
  70      8A6A6205 
  70      D0FFD7BF 
  70      6507BCD5 
  71 0102 A765BE41 		.ascii	"\247e\276A\346\022\317\366\035\226\362\206\324l!\340"
  71      E612CFF6 
  71      1D96F286 
  71      D46C21E0 
  72 0112 3C08023F 		.ascii	"<\010\002?\207\340g\035pF\345G\276\333\237\012\210\032"
  72      87E0671D 
  72      7046E547 
  72      BEDB9F0A 
ARM GAS  C:\Users\prana\AppData\Local\Temp\ccNLz197.s 			page 5


  72      881A
  73 0124 A7F5E1DD 		.ascii	"\247\365\341\335{#\032\266\242\246\334\344\223\335\211"
  73      7B231AB6 
  73      A2A6DCE4 
  73      93DD89
  74 0133 A86AE570 		.ascii	"\250j\345pQ\265\276\321\345\264>n\237\371\326o\304$"
  74      51B5BED1 
  74      E5B43E6E 
  74      9FF9D66F 
  74      C424
  75 0145 AEA59086 		.ascii	"\256\245\220\206j\270\000\325\244\037eg\300@\213y\351"
  75      6AB800D5 
  75      A41F6567 
  75      C0408B79 
  75      E9
  76 0156 34FD514E 		.ascii	"4\375QN\316\316Fenby\342L\253\377-`\224\321\230-4\203"
  76      CECE4665 
  76      6E6279E2 
  76      4CABFF2D 
  76      6094D198 
  77 016d 4205058B 		.ascii	"B\005\005\213\202\227\202\217\202\237B\200B\220B%\005"
  77      8297828F 
  77      829F4280 
  77      42904225 
  77      05
  78 017e C60A084F 		.ascii	"\306\012\010Ov\0279\247\253x\014\215(\265\000\016#b"
  78      761739A7 
  78      AB780C8D 
  78      28B5000E 
  78      2362
  79 0190 A2AC66BB 		.ascii	"\242\254f\273\357\256\207\314\341H\323\216r\237A\337"
  79      EFAE87CC 
  79      E148D38E 
  79      729F41DF 
  80 01a0 78E6E5D1 		.ascii	"x\346\345\321}T\203\371\364Xv\3221Ow\206\216\037\031"
  80      7D5483F9 
  80      F45876D2 
  80      314F7786 
  80      8E1F19
  81 01b3 C99BB569 		.ascii	"\311\233\265i\031k\220r\233-\014\322\013\227\324\224"
  81      196B9072 
  81      9B2D0CD2 
  81      0B97D494 
  82 01c3 F03DD462 		.ascii	"\360=\324b\311\300\323d\306\351\320\340\362\257\002"
  82      C9C0D364 
  82      C6E9D0E0 
  82      F2AF02
  83 01d2 3A1CCCC6 		.ascii	":\034\314\306\027\373\237\267\364\007\0114*\264\371"
  83      17FB9FB7 
  83      F4070934 
  83      2AB4F9
  84 01e1 BC1E0737 		.ascii	"\274\036\0077\233\035{\340\251\237\226\007\244\254\304"
  84      9B1D7BE0 
  84      A99F9607 
  84      A4ACC4
  85 01f0 B326A14C 		.ascii	"\263&\241L\033\275u?o%\341$\262\321\271\011\227\361"
  85      1BBD753F 
ARM GAS  C:\Users\prana\AppData\Local\Temp\ccNLz197.s 			page 6


  85      6F25E124 
  85      B2D1B909 
  85      97F1
  86 0202 79F981E8 		.ascii	"y\371\201\3500y\360J\246\311\254\271@\216\312\"\330"
  86      3079F04A 
  86      A6C9ACB9 
  86      408ECA22 
  86      D8
  87 0213 A2023A21 		.ascii	"\242\002:!\0113\3345\374\367?\343_\223TZ'\015[Xp\005"
  87      0933DC35 
  87      FCF73FE3 
  87      5F93545A 
  87      270D5B58 
  88 0229 6A4A5AE9 		.ascii	"jJZ\351\326\317\\+x\025\245Lb\273\027\262P\213S\374"
  88      D6CF5C2B 
  88      7815A54C 
  88      62BB17B2 
  88      508B53FC 
  89 023d 08F56442 		.ascii	"\010\365dB\363\251%\256\005\035\371\301\270\251,\000"
  89      F3A925AE 
  89      051DF9C1 
  89      B8A92C00 
  90 024d DCB6F6FD 		.ascii	"\334\266\366\375\0357\312-\350r-\350\206Z\234O\015\374"
  90      1D37CA2D 
  90      E8722DE8 
  90      865A9C4F 
  90      0DFC
  91 025f AAE5F4DB 		.ascii	"\252\345\364\333j`\243\314\271)(\263\016\363#\375\255"
  91      6A60A3CC 
  91      B92928B3 
  91      0EF323FD 
  91      AD
  92 0270 237E9443 		.ascii	"#~\224C\353>\346}\320\343\310\271\352\312y\364\216+"
  92      EB3EE67D 
  92      D0E3C8B9 
  92      EACA79F4 
  92      8E2B
  93 0282 67CE39BF 		.ascii	"g\3169\277\343\\\323\037\355S>\265= s\222\274m\355\372"
  93      E35CD31F 
  93      ED533EB5 
  93      3D207392 
  93      BC6DEDFA 
  94 0296 E6B89F5C 		.ascii	"\346\270\237\\#\256\367\360Q\010@\016\037\306^\342\202"
  94      23AEF7F0 
  94      5108400E 
  94      1FC65EE2 
  94      82
  95 02a7 6BE8112A 		.ascii	"k\350\021*r\356sa\342h\013\270\260\303\003\027\307\014"
  95      72EE7361 
  95      E2680BB8 
  95      B0C30317 
  95      C70C
  96 02b9 85137371 		.ascii	"\205\023sq\246&\036v{\027\342\364\315\341\364#\016\326"
  96      A6261E76 
  96      7B17E2F4 
  96      CDE1F423 
  96      0ED6
ARM GAS  C:\Users\prana\AppData\Local\Temp\ccNLz197.s 			page 7


  97 02cb F4FC9BEA 		.ascii	"\364\374\233\352\011\250\273\335\214\312M\310c\366\037"
  97      09A8BBDD 
  97      8CCA4DC8 
  97      63F61F
  98 02da 90FD854F 		.ascii	"\220\375\205O\010\230\206[C\\\377}u'\031\015(;*\026"
  98      0898865B 
  98      435CFF7D 
  98      7527190D 
  98      283B2A16 
  99 02ee 688485FA 		.ascii	"h\204\205\372\256#.6D_\033\252\330R\365\371\304\344"
  99      AE232E36 
  99      445F1BAA 
  99      D852F5F9 
  99      C4E4
 100 0300 178A860C 		.ascii	"\027\212\206\014\012\302\000\026?\202\330_\302\255r"
 100      0AC20016 
 100      3F82D85F 
 100      C2AD72
 101 030f 0E6815B9 		.ascii	"\016h\025\271`\203AA\224\226\312y\027\243\033,\243\363"
 101      60834141 
 101      9496CA79 
 101      17A31B2C 
 101      A3F3
 102 0321 A9FAB4FD 		.ascii	"\251\372\264\3754e*\276Y\200\033\016v\221klh\355|d\377"
 102      34652ABE 
 102      59801B0E 
 102      76916B6C 
 102      68ED7C64 
 103 0336 62C84365 		.ascii	"b\310Ce\310\001\254/\311~\340\312\016 @[G\357\214\371"
 103      C801AC2F 
 103      C97EE0CA 
 103      0E20405B 
 103      47EF8CF9 
 104 034a 66340B6E 		.ascii	"f4\013n\316M\242\263\203\253\346\363\005\027\343\373"
 104      CE4DA2B3 
 104      83ABE6F3 
 104      0517E3FB 
 105 035a A98CAF12 		.ascii	"\251\214\257\022\353\347\224\033\245\367_n-\275\374"
 105      EBE7941B 
 105      A5F75F6E 
 105      2DBDFC
 106 0369 51016C14 		.ascii	"Q\001l\024?\010\211\321aP\035\364\235\177\001\370t\370"
 106      3F0889D1 
 106      61501DF4 
 106      9D7F01F8 
 106      74F8
 107 037b C489DE78 		.ascii	"\304\211\336x\325\374\267_\303\257\303-\250\322\030"
 107      D5FCB75F 
 107      C3AFC32D 
 107      A8D218
 108 038a E2EAF461 		.ascii	"\342\352\364a\001\002\304Wm\331\207\341\317\303\221"
 108      0102C457 
 108      6DD987E1 
 108      CFC391
 109 0399 505D78C7 		.ascii	"P]x\307\266\315\273\366F\266\207\267l\332\274k\335\352"
 109      B6CDBBF6 
 109      46B687B7 
ARM GAS  C:\Users\prana\AppData\Local\Temp\ccNLz197.s 			page 8


 109      6CDABC6B 
 109      DDEA
 110 03ab 2DEBBEFC 		.ascii	"-\353\276\374`gh\317\247\357ng\326\356P$\364Y\270.\034"
 110      606768CF 
 110      A7EF6E67 
 110      D6EE5024 
 110      F459B82E 
 111 03c0 D96346C2 		.ascii	"\331cF\302u\037\207v\356\015\353\0336n\262\330\377<"
 111      751F8776 
 111      EE0DEB1B 
 111      366EB2D8 
 111      FF3C
 112 03d2 B3018B   		.ascii	"\263\001\213"
 113              		.text
 114              		.section	.gnu.lto_CySysFlashClockConfig.b369ff27,"",%progbits
 115 0000 789C7D53 		.ascii	"x\234}SML\023Q\020\236yow\273l[z\361\330\003&r\300D"
 115      4D4C1351 
 115      109E796F 
 115      77BB6C5B 
 115      7AF1D803 
 116 0018 0FC4AB5C 		.ascii	"\017\304\253\\H\364\244\022I<\221\030\202M<\020P\204"
 116      48F4A412 
 116      493C9118 
 116      824D3C10 
 116      5084
 117 002a 831779D0 		.ascii	"\203\027y\320\256\212\211?\034\360\0074D=\324\372\303"
 117      AE8A893F 
 117      1CF00734 
 117      443DD4FA 
 117      C3
 118 003b 9F802024 		.ascii	"\237\200 $4\210 \007\304z2\312\241\242\242!\204P\203"
 118      34882007 
 118      C47A32CA 
 118      A1A2A221 
 118      845083
 119 004e 1A44A933 		.ascii	"\032D\2513\335\266R\016\274\244\263\373\346}\363}\337"
 119      DDB6520E 
 119      BCA4B3FB 
 119      E67DF37D 
 119      DF
 120 005f CCBE6A80 		.ascii	"\314\276j\200\300kF\002\024\323\363\020\375\320\005"
 120      C06B4602 
 120      14D3F310 
 120      FDD005
 121 006e 28AEBD06 		.ascii	"(\256\275\006h2\205\220S>P\2266]\002\312#\321p\322\232"
 121      68328590 
 121      533E5096 
 121      365D02CA 
 121      23D170D2 
 122 0083 D0396119 		.ascii	"\3209a\031|\350\3213i\003\221_\224\211\320(\244\246"
 122      7CE8D133 
 122      6903915F 
 122      9489D028 
 122      A4A6
 123 0095 1BD8883F 		.ascii	"\033\330\210?\304_\201\261P\317m\271*l\011\250\3216"
 123      C45F81B1 
 123      50CF6DB9 
ARM GAS  C:\Users\prana\AppData\Local\Temp\ccNLz197.s 			page 9


 123      2A6C09A8 
 123      D136
 124 00a7 31D3FE29 		.ascii	"1\323\376)\237\267\210\005\264\355Po[\\Ea\245\232U\374"
 124      9FB78805 
 124      B4ED506F 
 124      5B5C4561 
 124      A59A55FC 
 125 00bb 65D81BE9 		.ascii	"e\330\033\351{\243\362l) )\000\037\240\037\303\350g"
 125      7BA3F26C 
 125      29202900 
 125      1FA01FC3 
 125      E867
 126 00cd 57112C02 		.ascii	"W\021,\002B\337\274q!\222/w!\277\317\315\306\276h\205"
 126      42DFBC71 
 126      21922F77 
 126      21BFCFCD 
 126      C6BE6885 
 127 00e1 F7B9321A 		.ascii	"\367\2712\032[<\325\032T\257\224F\245\370\020en50|\276"
 127      5B3CD51A 
 127      54AF9446 
 127      A5F81065 
 127      6E35307C 
 128 00f6 77A3CD6B 		.ascii	"w\243\315k\204\024\255\002|\204\205\254@\304\217\321"
 128      8414AD02 
 128      7C8485AC 
 128      40C48FD1 
 129 0106 A0212067 		.ascii	"\240! g\272\217FU2\031T\321\261\335\255\337\026\274"
 129      BA8F4655 
 129      321954D1 
 129      B1DDADDF 
 129      16BC
 130 0118 5E04CEEA 		.ascii	"^\004\316\352`Kippq09\344q\2608\2709x8\000\254\020!"
 130      604B6970 
 130      70713039 
 130      E471B038 
 130      B8397838 
 131 0130 8F202104 		.ascii	"\217 !\004?\345<6\223\261\025Li\020\023\231\270n\217"
 131      3FE53C36 
 131      93B1154C 
 131      69101399 
 131      B86E8F
 132 0143 CFBAB879 		.ascii	"\317\272\270yA\344O\310\334\002\216\257\256Lt\234c\314"
 132      41E44FC8 
 132      DC028EAF 
 132      AE4C749C 
 132      63CC
 133 0155 E6732DD5 		.ascii	"\346s-\325b\313\273\336u\217\263\275\250\242\212\307"
 133      62CBBBDE 
 133      758FB3BD 
 133      A8A28AC7 
 134 0165 776FE46A 		.ascii	"wo\344j\207\267\023\3574\205\232\224r\333R\307n\352"
 134      87B713EF 
 134      34859A94 
 134      72DB52C7 
 134      6EEA
 135 0177 B38BFBC4 		.ascii	"\263\213\373\304\036\354D\202\334\275\025\036ws\225"
 135      1EEC4482 
ARM GAS  C:\Users\prana\AppData\Local\Temp\ccNLz197.s 			page 10


 135      DCBD151E 
 135      777395
 136 0186 C4C198C4 		.ascii	"\304\301\230\304\336\264L\317dV&>\331\265d8\274\241"
 136      DEB44CCF 
 136      6456263E 
 136      D9B56438 
 136      BCA1
 137 0198 34EFFAAF 		.ascii	"4\357\372\257\271Qw\016o_\226\367\251\303\273\272l_"
 137      B951770E 
 137      6F5F96F7 
 137      A9C3BBBA 
 137      6C5F
 138 01aa D61DDE36 		.ascii	"\326\035\3366\232\242\211\375t\372\025\325\213\366\032"
 138      9AA289FD 
 138      74FA15D5 
 138      8BF61A
 139 01b9 E6E539EF 		.ascii	"\346\3459\357a\245\337\227~\016\005-N\005\245\236c\031"
 139      61A5DF97 
 139      7E0E052D 
 139      4E05A59E 
 139      6319
 140 01cb 73FD0E10 		.ascii	"s\375\016\020/\025\004\377\030\0168\215\237h];\355\310"
 140      2F1504FF 
 140      180E388D 
 140      9F685D3B 
 140      EDC8
 141 01dd F0C7F2E1 		.ascii	"\360\307\362\341 \201?b\350\275L\243R\011^\011!a\312"
 141      20813F62 
 141      E8BD4CA3 
 141      52095E09 
 141      2161CA
 142 01f0 2759322D 		.ascii	"'Y2-\347\332N\356\331\0269\323\301w\333\237#\246\243"
 142      E7DA4EEE 
 142      D91639D3 
 142      C177DB9F 
 142      23A6A3
 143 0203 97441C4A 		.ascii	"\227D\034Jq'\204\006\323%\233\231\363\266c\036\336\302"
 143      71278406 
 143      D3259B99 
 143      F3B6631E 
 143      DEC2
 144 0215 6C113E63 		.ascii	"l\021>c\373C\332\266E\004\341\376\261\015\363\177k\026"
 144      FB43DAB6 
 144      4504E1FE 
 144      B10DF37F 
 144      6B16
 145 0227 3ECF76A2 		.ascii	">\317v\242\303\225\342\315z\356\355\364F\266\350y\010"
 145      C395E2CD 
 145      7AEEEDF4 
 145      46B6E879 
 145      08
 146 0238 9F756E64 		.ascii	"\237und.\237\332\237\271yA\211\260H\267q`9\216N\005"
 146      2E9FDA9F 
 146      B9794189 
 146      B048B771 
 146      60398E4E 
 147 024d FFF1BF23 		.ascii	"\377\361\277#\322\020\344R\342\374\016\036\303\322\360"
ARM GAS  C:\Users\prana\AppData\Local\Temp\ccNLz197.s 			page 11


 147      D210E452 
 147      E2FC0E1E 
 147      C3D2F0
 148 025c 9AD7F106 		.ascii	"\232\327\361\0068\212~\015\210W\347[\215LHw{\347\301"
 148      388A7E0D 
 148      8857E75B 
 148      8D4C4877 
 148      7BE7C1
 149 026f 404DA0AE 		.ascii	"@M\240\256\262>p\342xymC]U\240\242\254\274\266t_E\351"
 149      B23E70E2 
 149      78796D43 
 149      5D55A0A2 
 149      ACBCB674 
 150 0286 D903D595 		.ascii	"\331\003\325\225gN\356\255\002\263.P\177\254\262\272"
 150      674EEEAD 
 150      02B32E50 
 150      7FACB2BA 
 151 0296 21A01F3E 		.ascii	"!\240\037>Rf\301?\321\013O\327"
 151      5266C13F 
 151      D10B4FD7 
 152              		.text
 153              		.section	.gnu.lto_CySysFlashClockRestore.b369ff27,"",%progbits
 154 0000 789C7D54 		.ascii	"x\234}T]LTG\024\2363s\357\335\313\335?|\361\21146)i"
 154      5D4C5447 
 154      149E3373 
 154      EFDDCBDD 
 154      3F7CF189 
 155 0018 7C91D0F8 		.ascii	"|\221\320\370`\322\350\213\211>\371\223\232\364\311"
 155      60D2E88B 
 155      893EF993 
 155      9AF4C9
 156 0027 C66CEC26 		.ascii	"\306l\354&}\260jWL\364\211\201\335\313\2171*i*F\260"
 156      7DB06A57 
 156      4CF48981 
 156      DDCB8F31 
 156      2A692A46 
 157 003c A4F840A9 		.ascii	"\244\370@\251\305\005J\305\025ZWXA\320jm\304\177\015"
 157      C5054AC5 
 157      155A5758 
 157      41D06A6D 
 157      C47F0D
 158 004f FEA08992 		.ascii	"\376\240\211\222\015\213\030\242\010\333s\356\334E\330"
 158      0D8B18A2 
 158      08DB73EE 
 158      DC45D8
 159 005e 0726D973 		.ascii	"\007&\331sw\346\234\371\276\357|w\356h\014\030\215^"
 159      77E69CF9 
 159      BEEF7C77 
 159      EE680C18 
 159      8D5E
 160 0070 9DB1B5F8 		.ascii	"\235\261\265\370\334\204?\3600\340\307\2563Var.\006"
 160      DC843FF0 
 160      30E0C7AE 
 160      33566172 
 160      2E06
 161 0082 834C5ADA 		.ascii	"\203LZ\332\320:&}\002\014\265\254q\235\026,\203\222"
 161      D03A267D 
ARM GAS  C:\Users\prana\AppData\Local\Temp\ccNLz197.s 			page 12


 161      020CB5AC 
 161      719D162C 
 161      8392
 162 0094 3E3DB76C 		.ascii	">=\267l\000\320\037i\002+\347B\323\015(\207\267|\226"
 162      00D01F69 
 162      022BE742 
 162      D30D2887 
 162      B77C96
 163 00a7 C3CD587B 		.ascii	"\303\315X{\243\230\342\266`\240\3414\363\317\311g\001"
 163      A398E2B6 
 163      60A0E134 
 163      F3CFC967 
 163      01
 164 00b8 9A02ACC0 		.ascii	"\232\002\254\300i\203\374\257\326\263\262E\312J9j\247"
 164      6983FCAF 
 164      D6B3B245 
 164      CA4A396A 
 164      A7
 165 00c9 FDAD9DFF 		.ascii	"\375\255\235\377\312\002[p\226\345\014~\205\"h\201\""
 165      CA025B70 
 165      96E50C7E 
 165      85226881 
 165      22
 166 00da 52D50A2B 		.ascii	"R\325\012+\031V\237\354\231\032\326\025\226\211\323"
 166      19569FEC 
 166      991AD615 
 166      9689D3
 167 00e9 EEF4996E 		.ascii	"\356\364\231n\277\302JRzv\372XT\023\237\001\375\377"
 167      BFC24A52 
 167      7A76FA58 
 167      54139F01 
 167      FDFF
 168 00fb 703B31E0 		.ascii	"p;1\340->-S\02529\233>\360\243\224W\244f\013\001\277"
 168      2D3E2D53 
 168      1532399B 
 168      3EF0A394 
 168      57A4660B 
 169 0111 8320F033 		.ascii	"\203 \3603\010\376\233\003\316\250\374D}uk@\2248[\037"
 169      08FE9B03 
 169      CEA8FC44 
 169      7D756B40 
 169      94385B1F 
 170 0125 DEB839A6 		.ascii	"\336\2709\246\341V\324\224|\233\336[\027U[9\234U[?\352"
 170      E156D494 
 170      7C9BDE5B 
 170      17555B39 
 170      9C555B3F 
 171 013a 72B63EED 		.ascii	"r\266>\355\230\373\311o\304$\216\025\020\207bh\203b"
 171      98FBC96F 
 171      C4248E15 
 171      10876268 
 171      8362
 172 014c D28FB2DB 		.ascii	"\322\217\262\333\301@\213yn5\376URf\263Q\231|\263\252"
 172      C1408B79 
 172      6E35FE55 
 172      5266B351 
 172      997CB3AA 
ARM GAS  C:\Users\prana\AppData\Local\Temp\ccNLz197.s 			page 13


 173 0160 AEA633B0 		.ascii	"\256\2463\260\014\030e4f\013\315\240P@\301\242\340\245"
 173      0C186534 
 173      660BCDA0 
 173      5040C1A2 
 173      E0A5
 174 0172 E0A3E0A7 		.ascii	"\340\243\340\247\020\240\020\244PH\201\261\011\204'"
 174      10A010A4 
 174      504881B1 
 174      098427
 175 0181 BB339CD3 		.ascii	"\2733\234\323S<\205J\224:\001\016#b\242\254\343v\337"
 175      533C854A 
 175      943A010E 
 175      2362A2AC 
 175      E376DF
 176 0194 0D0F99C3 		.ascii	"\015\017\231\303\221\246\003\345\276\200\276\251\211"
 176      91A603E5 
 176      BE80BEA9 
 176      89
 177 01a1 5B8D07A8 		.ascii	"[\215\007\250\006\363\361\361\304;\307<\335i\272\352"
 177      06F3F1F1 
 177      C43BC73C 
 177      DD69BAEA 
 178 01b1 C458CA2C 		.ascii	"\304X\312,\215\313X\205\224;la\220^\350T]\302\037P\212"
 178      8DCB5885 
 178      943B6C61 
 178      905EE854 
 178      5DC21F50 
 179 01c6 25AFED97 		.ascii	"%\257\355\227\323\016\242\006\347F\004t9\230\225\223"
 179      D30EA206 
 179      E7460474 
 179      39989593 
 180 01d6 D52F86FB 		.ascii	"\325/\206\373\203\004\032\025\332B^\217\203\233H\214"
 180      83041A15 
 180      DA425E8F 
 180      839B488C 
 181 01e6 3FF094CF 		.ascii	"?\360\224\317\312\032)\013q\255V(\323^]\033IYMp\012"
 181      CA1A290B 
 181      71AD5628 
 181      D35E5D1B 
 181      49594D70 
 182 01fb D968DD84 		.ascii	"\331h\335\204sx^\376$:L\0369\337^k\226\264\221\2432"
 182      73785EFE 
 182      243A4C1E 
 182      39DF5E6B 
 182      96B491A3 
 183 0210 03B62880 		.ascii	"\003\266(\200nh\2029\356\032~\347^\325a\222J\343\224"
 183      6E688239 
 183      EE1A7EE7 
 183      5ED56192 
 183      4AE394
 184 0223 610B0BCE 		.ascii	"a\013\013\316CIN+\275\372\271K\023^E)\233p\273\027\022"
 184      43494E2B 
 184      BDFAB94B 
 184      135E4529 
 184      9B70BB17 
 185 0238 508A5D5C 		.ascii	"P\212]\\\200r2\341\370/\237\270\026t\245\006\253Le\001"
 185      807232E1 
ARM GAS  C:\Users\prana\AppData\Local\Temp\ccNLz197.s 			page 14


 185      F82F9FB8 
 185      1674A506 
 185      AB4C6501 
 186 024c E0B4B9EF 		.ascii	"\340\264\271\357Q\225\221oA\217kA/\224b\177\252\341"
 186      5195916F 
 186      418F6B41 
 186      2F94627F 
 186      AAE1
 187 025e F4F0E9E5 		.ascii	"\364\360\351\345\252a#\317\271\031\310\263\016\363c"
 187      AA6123CF 
 187      B919C8B3 
 187      0EF363
 188 026d FDCD637E 		.ascii	"\375\315c~\224Cc\004\363>\370\313\221\363\267+\347\311"
 188      94436304 
 188      F33EF8CB 
 188      91F3B72B 
 188      E7C9
 189 027f E7AE9C79 		.ascii	"\347\256\234y\347\374\216s\265w;f|jZ#\223\222\274m\356"
 189      E7FC8E73 
 189      B5773B66 
 189      7C6A5A23 
 189      9392BC6D 
 190 0294 39DAE027 		.ascii	"9\332\340'\327\210\353K<\012\001H\342a\274H\\p\011="
 190      D788EB4B 
 190      3C0A0148 
 190      E261BC48 
 190      5C70093D 
 191 02a8 4245CE7B 		.ascii	"BE\316{n\277\323\3703\270\260\243\003g\307\015\205\023"
 191      6EBFD3F8 
 191      33B8B0A3 
 191      0367C70D 
 191      8513
 192 02ba 737166A6 		.ascii	"sqf\246\037\366z\027\343\364\315\343\364#\016\326\\"
 192      1FF67A17 
 192      E3F4CDE3 
 192      F4230ED6 
 192      5C
 193 02cb 6F6B88FB 		.ascii	"ok\210\373\324\333\256G\345&\2440\373\022d\377\343\010"
 193      D4DBAE47 
 193      E526A430 
 193      FB1264FF 
 193      E308
 194 02dd 0153736B 		.ascii	"\001Ssk\210\353\375\241\201\253\321\200\262\243`\221"
 194      88EBFDA1 
 194      81ABD180 
 194      B2A36091 
 195 02ed 4658ACEF 		.ascii	"FX\254\3572\342\342\206\350\007C\025[\252>U\367\356"
 195      32E2E286 
 195      E8074315 
 195      5BAA3E55 
 195      F7EE
 196 02ff 07454306 		.ascii	"\007EC\006\005a\000\213\237@\354\276p\253\234\005\032"
 196      0561008B 
 196      9F40ECBE 
 196      70AB9C05 
 196      1A
 197 0310 192ED860 		.ascii	"\031.\330`P\020\245\245r\336\245\350\006\363\350|\252"
ARM GAS  C:\Users\prana\AppData\Local\Temp\ccNLz197.s 			page 15


 197      5010A5A5 
 197      72DEA5E8 
 197      06F3E87C 
 197      AA
 198 0321 3E6E3F6F 		.ascii	">n?o5\025_\026\340\212\203\235\341\032\033Z\267\020"
 198      35155F16 
 198      E08A839D 
 198      E11A1B5A 
 198      B710
 199 0333 D9BF14F2 		.ascii	"\331\277\024\362P\036r\000\353s\262\037\270\262\003"
 199      501E7200 
 199      EB73B21F 
 199      B8B203
 200 0342 08D0D275 		.ascii	"\010\320\322uq\316\374\330\232\005\303\363\235\350\354"
 200      71CEFCD8 
 200      9A05C3F3 
 200      9DE8EC
 201 0351 C8170BF9 		.ascii	"\310\027\013\371\202K\361]\315\343+\304\372y\345F\356"
 201      824BF15D 
 201      CDE32BC4 
 201      FA79E546 
 201      EE
 202 0362 FB97DFE4 		.ascii	"\373\227\337\344>\376\250\000\366\012/\204\354\344("
 202      3EFEA800 
 202      F60A2F84 
 202      ECE428
 203 0371 A81D74CF 		.ascii	"\250\035t\317O\002\236\016\2378\\_]\264\360\353\327"
 203      4F029E0E 
 203      9F385C5F 
 203      5DB4F0EB 
 203      D7
 204 0382 F076B806 		.ascii	"\360v\270\006E\032C\\\235.\026 @\374\324>\335\030\336"
 204      451A435C 
 204      9D2E1620 
 204      40FCD43E 
 204      DD18DE
 205 0395 1D8E84CA 		.ascii	"\035\216\204\312\302\337\356\330\266g\177dgx\373\326"
 205      C2DFEED8 
 205      B6677F64 
 205      6778FBD6 
 206 03a5 6D7BD6AF 		.ascii	"m{\326\257\336\276\376\340\206]\241}\337\255\332\311"
 206      DEBEFEE0 
 206      865DA17D 
 206      DFADDAC9 
 207 03b5 ACBDA148 		.ascii	"\254\275\241H\350\373pY8\262\317\214\204\313\276\016"
 207      E8FB7059 
 207      38B2CF8C 
 207      84CBBE0E 
 208 03c5 EDDA1FD6 		.ascii	"\355\332\037\3267o\331j\261\377\001+l\002b"
 208      376FD96A 
 208      B1FF012B 
 208      6C0262
 209              		.text
 210              		.section	.gnu.lto_CySysFlashWriteRow.b369ff27,"",%progbits
 211 0000 789C7D56 		.ascii	"x\234}VmlTe\026~\317}\347\363\316\247\235\316\264,\345"
 211      6D6C5465 
 211      167ECF7D 
ARM GAS  C:\Users\prana\AppData\Local\Temp\ccNLz197.s 			page 16


 211      E7F3CEA7 
 211      9DCEB42C 
 212 0015 2BD85442 		.ascii	"+\330TB\244\224\202H\344\007+\233\335\375\263jl\262"
 212      A4948248 
 212      E4072B9B 
 212      DDFDB36A 
 212      6CB2
 213 0027 BB3F4836 		.ascii	"\273?H6\015\316fwEpk\211\356\217\265\267\314L\255l\002"
 213      0DCE6677 
 213      45706B89 
 213      EE8FB5B7 
 213      CC4CAD6C 
 214 003c 15940A62 		.ascii	"\025\224\012b@\011Pvk\277@\264\025\351\000\245\005\265"
 214      40095076 
 214      6BBF40B4 
 214      15E900A5 
 214      05B5
 215 004e D416A840 		.ascii	"\324\026\250@?\200B+\333\260\233\026E\220\012\3439\357"
 215      3F80422B 
 215      DBB09B16 
 215      45900AE3 
 215      39EF
 216 0060 7BEF747A 		.ascii	"{\357tzK:\311\234\271\357\271\347<\317y\317}\3173\327"
 216      4B3AC99C 
 216      B9EFB9E7 
 216      3CCF79CF 
 216      7DCF33D7 
 217 0074 C280D167 		.ascii	"\302\200\321g\265\207\261\277\341\357/p\011\323\030"
 217      B587B1BF 
 217      E1EF2F70 
 217      09D318
 218 0083 28156718 		.ascii	"(\025g\030+u(\012/\317a\232\232A\326\315\025K\333\023"
 218      2B75280A 
 218      2FCF619A 
 218      9A41D6CD 
 218      154BDB13 
 219 0097 B43A9D81 		.ascii	"\264:\235\201+\213b\035\011\342\312\266\373I\\Y\301"
 219      2B8B621D 
 219      09E2CAB6 
 219      FB495C59 
 219      C1
 220 00a8 29536C8A 		.ascii	")Sl\212\235\034\252\223n\272\355\206\333\251\250M3\321"
 220      9D1CAA93 
 220      6EBAED86 
 220      DBA9A84D 
 220      33D1
 221 00ba 9DD99D8B 		.ascii	"\235\331\235\213nUq\235\013\341\312}d)\256\\\340\226"
 221      6E55719D 
 221      0BE1CA7D 
 221      6429AE5C 
 221      E096
 222 00cc 416EC523 		.ascii	"An\305#\350\002\202\316\243x\005\201O\020x!M\006\371"
 222      E80282CE 
 222      A3780581 
 222      4F107821 
 222      4D06F9
 223 00df 14BF2048 		.ascii	"\024\277 H\023\004~\303\235\006\001y\021P\322\005SH"
ARM GAS  C:\Users\prana\AppData\Local\Temp\ccNLz197.s 			page 17


 223      13047EC3 
 223      9D060179 
 223      1150D205 
 223      5348
 224 00f1 30A52BC1 		.ascii	"0\245+\301s\271\264:\202>w\020B2(\004\231\362\"\303"
 224      73B9B43A 
 224      823E7710 
 224      42322804 
 224      99F222C3 
 225 0105 B8C804A0 		.ascii	"\270\310\004\240\013\315\001\254D\341\026\253\315\356"
 225      0BCD01AC 
 225      44E116AB 
 225      CDEE
 226 0113 545D6E8F 		.ascii	"T]n\217\327\347O\013\244\007C\031\231P\002\267\225\373"
 226      D7E74F0B 
 226      A4074319 
 226      995002B7 
 226      95FB
 227 0125 0A7446EB 		.ascii	"\012tF\353v\362\357\225\030g`\301\345h\373\216k^Z\002"
 227      76F2EF95 
 227      186760C1 
 227      E568FB8E 
 227      6B5E5A02 
 228 0139 CCC6E57B 		.ascii	"\314\306\345{Z\327\233\366y\3735m\203ve\357\360\212"
 228      5AD79BF6 
 228      79FB356D 
 228      837665EF 
 228      F08A
 229 014b B722B1DF 		.ascii	"\267\"\261\337\306\270\302\022\012\203*\310\202\375"
 229      C6B8C212 
 229      0A832AC8 
 229      82FD
 230 0159 90855D86 		.ascii	"\220\205]\206\0030\017c+w\355\033t\361G\201\341u\303"
 230      03300F63 
 230      2B77ED1B 
 230      74F14781 
 230      E175C3
 231 016c E6DDED90 		.ascii	"\346\335\355\220\263\227\362\264w\302\232\023\223\340"
 231      B397F2B4 
 231      77C29A13 
 231      93E0
 232 017a DFC053F3 		.ascii	"\337\300S\363\010\007\376\0039\030\375\305\330\335}"
 232      0807FE03 
 232      3918FDC5 
 232      D8DD7D
 233 0189 2A9F2F32 		.ascii	"*\237/2\265MMcV=\263Odr\2506gb\261\037A\016\205o\275"
 233      B54D4D63 
 233      563DB34F 
 233      6472A836 
 233      6762B11F 
 234 01a2 D5F7A98D 		.ascii	"\325\367\251\215\347\213\324K5\025Q5{\017\245\306\373"
 234      E78BD44B 
 234      35155135 
 234      7B0FA5C6 
 234      FB
 235 01b3 CABC955A 		.ascii	"\312\274\225Z\274tv\214[\240F\246\347g\301\302,q<0\266"
 235      BC74768C 
ARM GAS  C:\Users\prana\AppData\Local\Temp\ccNLz197.s 			page 18


 235      5BA046A6 
 235      E767C1C2 
 235      2C713C30 
 236 01c8 BABDAD57 		.ascii	"\272\275\255W\337v9\320\272\252o\310.\367\035w\340\372"
 236      DF7639D0 
 236      BAAA6FC8 
 236      2EF71D77 
 236      E0FA
 237 01da FE9D8A88 		.ascii	"\376\235\212\210\205?-p\357\016\016\336v\"nK\251\026"
 237      853F2D70 
 237      EF0E0EDE 
 237      76226E4B 
 237      A916
 238 01ec EF690DA1 		.ascii	"\357i\015\241\215\"\256\025\032$n=\226U\007I\344S\003"
 238      8D22AE15 
 238      1A246E3D 
 238      96550749 
 238      E45303
 239 01ff 95C714FE 		.ascii	"\225\307\024\376;\221yx\347\356Q+fF#Z\374B\253[\253"
 239      3B917978 
 239      E7EE512B 
 239      6646235A 
 239      FC42AB5B 
 240 0214 2875C4B8 		.ascii	"(u\304\270\015\016M\334\217\236\370n\345\033\007\274"
 240      0D0E4DDC 
 240      8F9EF86E 
 240      E51B07BC 
 241 0224 7C9548DC 		.ascii	"|\225H\334\271\375\354\307Fb\367x\342\341\207&\016\324"
 241      B9FDECC7 
 241      4662F778 
 241      E2E18726 
 241      0ED4
 242 0236 3F78C763 		.ascii	"?x\307c\213j\370\231\015\237@6|\214\337\203\370\255"
 242      8B6AF899 
 242      0D9F4036 
 242      7C8CDF83 
 242      F8AD
 243 0248 856C7A54 		.ascii	"\205lzT\370\204>\005\033\216\202\305|\267\366\371\270"
 243      F8843E05 
 243      1B8E82C5 
 243      7CB7F6F9 
 243      B8
 244 0259 964820C7 		.ascii	"\226H \307y\333\261{\336_\002\266\326\256\220Q\201\036"
 244      79DBB17B 
 244      DE5F02B6 
 244      D6AE9051 
 244      811E
 245 026b 8D0BA8CD 		.ascii	"\215\013\250\315>r\244\221\011\220I'\023$\023\"\223"
 245      3E72A491 
 245      09904927 
 245      13241322 
 245      93
 246 027c 412693CC 		.ascii	"A&\223\31442\323\311\314`\004>\213.\347\220\231K&\233"
 246      3432D3C9 
 246      CC60043E 
 246      8B2EE790 
 246      994B269B 
ARM GAS  C:\Users\prana\AppData\Local\Temp\ccNLz197.s 			page 19


 247 0290 4C0E99C7 		.ascii	"L\016\231\307\310\314#3\237\314\0022\271d\026\222\311"
 247      C8CC2333 
 247      9FCC0232 
 247      B9641692 
 247      C9
 248 02a1 23B3884C 		.ascii	"#\263\210L>\231\305d\226\220YJf\031\231\247\310,'\263"
 248      3E99C564 
 248      9690594A 
 248      661999A7 
 248      C82C27B3 
 249 02b5 421C2336 		.ascii	"B\034#6\202_:\356\243\212B\277|\010\216\177?r\276\323"
 249      825F3AEE 
 249      A38A42BF 
 249      7C088E7F 
 249      3F72BED3 
 250 02c9 2AF68D7B 		.ascii	"*\366\215{\306&m\213\035\357\020\017\030\033\001\215"
 250      C6266D8B 
 250      1DEF100F 
 250      181B018D 
 251 02d9 D83C8AA9 		.ascii	"\330<\212\251\350\006\021B-!\337U\210vD\366o\312$g\204"
 251      E8061142 
 251      2D21DF55 
 251      887644F6 
 251      6FCA2467 
 252 02ee AB98D6DC 		.ascii	"\253\230\326\334\375\3237\342\234(\220\340\320\2447"
 252      FDD337E2 
 252      9C2890E0 
 252      D0A437
 253 02fd 7D54E1AC 		.ascii	"}T\341\254<\207cxOdH\221\321\256T\022\216$\237%\203"
 253      3C876378 
 253      4F644891 
 253      D1AE5412 
 253      8E249F25 
 254 0312 2D6CCF74 		.ascii	"-l\317t~\003\312\342\333\333\334\024L\017\255\261\361"
 254      7E03CAE2 
 254      DBDBDC14 
 254      4C0FADB1 
 254      F1
 255 0323 668FBDE4 		.ascii	"f\217\275\344\276V\256i\376\030w$\024\222\252#PB\367"
 255      BE56AE69 
 255      FE187724 
 255      1492AA23 
 255      5042F7
 256 0336 4E26EEC4 		.ascii	"N&\356\304}\004\343\004\032\321\341\336\243+\363j\265"
 256      7D04E304 
 256      1AD1E1DE 
 256      A32BF36A 
 256      B5
 257 0347 68A9A61D 		.ascii	"h\251\246\035\004\332\000=\275\317%:\336\356\270\034"
 257      04DA003D 
 257      BDCF253A 
 257      DEEEB81C 
 258 0357 DFEB4224 		.ascii	"\337\353B$\372\3743\306U8\012y\202\005\232\241D\326"
 258      FAFC33C6 
 258      55380A79 
 258      82059AA1 
 258      44D6
ARM GAS  C:\Users\prana\AppData\Local\Temp\ccNLz197.s 			page 20


 259 0369 7578E874 		.ascii	"ux\350t\253*\0015<\340\220\025\343.\321\200\272\007"
 259      AB2A0135 
 259      3CE09015 
 259      E32ED180 
 259      BA07
 260 037b A5768AC5 		.ascii	"\245v\212\305\230\332\233\215?zd\014\241\306\232n\334"
 260      98DA9B8D 
 260      3F7A640C 
 260      A1C69A6E 
 260      DC
 261 038c F0EAAC7F 		.ascii	"\360\352\254\1770H\217IR8\016y\030\322\277m\373k\224"
 261      30488F49 
 261      52380E79 
 261      18D2BF6D 
 261      FB6B94
 262 039f 6087C3B5 		.ascii	"`\207\303\265\034N\350=\255k\331`@\036ji+sHH\232\261"
 262      1C4EE83D 
 262      AD6BD960 
 262      401E6A69 
 262      2B734848 
 263 03b5 073F0C3E 		.ascii	"\007?\014>mFl\321\021O\012\304\261SC\315>\371\220\022"
 263      6D466CD1 
 263      114F0AC4 
 263      B15343CD 
 263      3EF99012 
 264 03c9 0C5A05E2 		.ascii	"\014Z\005\342\206[otW\355\000\331d\237\251\262\357\300"
 264      865B6F74 
 264      57ED00D9 
 264      649FA9B2 
 264      EFC0
 265 03db 541ADE7F 		.ascii	"T\032\336\177{\337\300\016\217\336\217\317\201\032\322"
 265      7BDFC00E 
 265      8FDE8FCF 
 265      811AD2
 266 03ea 06794871 		.ascii	"\006yHq\012\233\213\005n\273\232\255\227\227|Zn\261"
 266      0A9B8B05 
 266      6EBB9AAD 
 266      97977C5A 
 266      6EB1
 267 03fc E3372FD4 		.ascii	"\3437/\324\217\271\345\262\\\213k\244\206\037~\266\371"
 267      8FB9E5B2 
 267      5C8B6BA4 
 267      861F7EB6 
 267      F9
 268 040d 3DCF2E78 		.ascii	"=\317.x\277\224\270\3508z\340\013\234\275\323\304\005"
 268      BF94B8E8 
 268      387AE00B 
 268      9CBDD3C4 
 268      05
 269 041e 5FC22EC0 		.ascii	"_\302.\300\212\304\246GN68u\324+\25557m\022&\252\303"
 269      8AC4A647 
 269      4E363875 
 269      D42BAD35 
 269      376D1226 
 270 0434 8CDDE93D 		.ascii	"\214\335\351=\342\232\010\363U\022\246\035a0fs\365\336"
 270      E29A08F3 
 270      5512A61D 
ARM GAS  C:\Users\prana\AppData\Local\Temp\ccNLz197.s 			page 21


 270      61306673 
 270      F5DE
 271 0446 9B5C7693 		.ascii	"\233\\v\223&\331\001g\360\356\267\240\235xW\025\017"
 271      26D90167 
 271      F0EEB7A0 
 271      9D785715 
 271      0F
 272 0457 133F61A2 		.ascii	"\023?a\242\272\267\361\377U\177\224\315H\233P!L\254"
 272      BAB7F1FF 
 272      557F94CD 
 272      489B5021 
 272      4CAC
 273 0469 AE036131 		.ascii	"\256\003a1>\362\223M\006\007d|\313[?\376]\262P{|\360"
 273      3EF2934D 
 273      0607647C 
 273      CB5B3FFE 
 273      5DB2507B 
 274 047f B53CF597 		.ascii	"\265<\365\227\270\036%\034\362\324ZY\227\235&\351\236"
 274      B81E251C 
 274      F2D45A59 
 274      979D26E9 
 274      9E
 275 0490 2AEFA54F 		.ascii	"*\357\245OE\327i\242\013\312\370\332\330\365\003\016"
 275      45D769A2 
 275      0BCAF8DA 
 275      D8F5030E 
 276 04a0 C99700E8 		.ascii	"\311\227\000\350\022\330\243\212\215u\005R\221CS!\237"
 276      12D8A38A 
 276      8D750552 
 276      91435321 
 276      9F
 277 04b1 35216760 		.ascii	"5!g`\274Qv\217^v\006\002\354?\324\374\3001\2765\025"
 277      BC51768F 
 277      5E760602 
 277      EC3FD4FC 
 277      C031BE35 
 278 04c6 CE257762 		.ascii	"\316%wbg[\274\251|\231S\361\2357\361M\303\370d\345N"
 278      675BBCA9 
 278      7C9953F1 
 278      9D37F14D 
 278      C3F864E5 
 279 04db 9A643A44 		.ascii	"\232d:D\037\004\015m\211p\020\307j\264\255\313*3\246"
 279      1F040D6D 
 279      897010C7 
 279      6AB4ADCB 
 279      2A33A6
 280 04ee 935B7435 		.ascii	"\223[t5\262V\367\244\316\227\035\265\241[\326v\013\360"
 280      B256F7A4 
 280      CE971DB5 
 280      A15BD676 
 280      0BF0
 281 0500 0405ADBD 		.ascii	"\004\005\255\275\235u@.\033C:;\361\250\254SE\305\210"
 281      9D75402E 
 281      1B433A3B 
 281      F1A8AC53 
 281      45C588
 282 0513 C49B37CE 		.ascii	"\304\2337\316\224\0203&i\2067\201j\307\340\033<\326"
ARM GAS  C:\Users\prana\AppData\Local\Temp\ccNLz197.s 			page 22


 282      94103326 
 282      69863781 
 282      6AC7E01B 
 282      3CD6
 283 0525 313C8603 		.ascii	"1<\206\003 \204\210\224\027\243\031%\237\3358K&\317"
 283      20848894 
 283      17A31925 
 283      9FDD384B 
 283      26CF
 284 0537 9A94EC4F 		.ascii	"\232\224\354O\240\2041\270 \222\037\021\033\370`\246"
 284      A08431B8 
 284      20921F11 
 284      1BF860A6 
 285 0547 A1859820 		.ascii	"\241\205\230 <\365\335\267\354\022`\016\271\345\226"
 285      3CF5DDB7 
 285      EC12600E 
 285      B9E596
 286 0556 5E373CDD 		.ascii	"^7<\335\311\376\272\330\277\270\250\266\317\250v\356"
 286      C9FEBAD8 
 286      BFB8A8B6 
 286      CFA876EE 
 287 0566 C3082D48 		.ascii	"\303\010-Hx1\225p\306x\017\347\012 7m[0\367m\321\231"
 287      78319570 
 287      C6780FE7 
 287      0A20376D 
 287      5B30F76D 
 288 057c B3C79BF9 		.ascii	"\263\307\233\371\272\341\031g\366\260*\253T\373\376"
 288      BAE11967 
 288      F6B02AAB 
 288      54FBFE
 289 058b 2DC600A6 		.ascii	"-\306\000\246\352\303\253f\345\272$t\346\243\322\312"
 289      EAC3AB66 
 289      E5BA2474 
 289      E6A3D2CA 
 290 059b 4F2CBA74 		.ascii	"O,\272t\325s\350\221\322u\264\376\362\006\247\344\310"
 290      D573E891 
 290      D275B4FE 
 290      F206A7E4 
 290      C8
 291 05ac 9988E337 		.ascii	"\231\210\3437\303\364\242\242\340\031\031)\353\325O"
 291      C3F4A2A2 
 291      E0191929 
 291      EBD54F
 292 05bb C963F2EF 		.ascii	"\311c\362\357\242k\344\253\367]R\361\374\320'`#w\313"
 292      A26BE4AB 
 292      F75D52F1 
 292      FCD02760 
 292      2377CB
 293 05ce 5A2C3268 		.ascii	"Z,2h\036\002c\250\330<L\256v\022K?\344a\222\324\300"
 293      1E0263A8 
 293      D83C4CAE 
 293      76124B3F 
 293      E46192D4 
 294 05e3 D6EA265D 		.ascii	"\326\352&]\003\347\233\366\270\3256\265\006\366\011"
 294      03E79BF6 
 294      B8D536B5 
 294      06F609
ARM GAS  C:\Users\prana\AppData\Local\Temp\ccNLz197.s 			page 23


 295 05f2 0DBC2C34 		.ascii	"\015\274,4\360\212\241\201\217\353\364\023\024\256\300"
 295      F08AA181 
 295      8FEBF413 
 295      14AEC0
 296 0601 A4705785 		.ascii	"\244pW\205\302\315\227\012w\275\301\245\347L\220\263"
 296      C2CD970A 
 296      77BDC1A5 
 296      E74C90B3 
 297 0611 02939C0D 		.ascii	"\002\223\234\015H9\273]Qs\321%;\034\023rvM\227\263\267"
 297      4839BB5D 
 297      5173D125 
 297      3B1C1372 
 297      764D97B3 
 298 0626 5D2639EB 		.ascii	"]&9\353\257~M\356k\301TSy\3354\225\271\030o\026\257"
 298      AF7E4DEE 
 298      6BC15453 
 298      79DD3495 
 298      B9186F16 
 299 063b DC14F1F2 		.ascii	"\334\024\361\362\262fH\035\371\205S\201\017\232\300"
 299      B266481D 
 299      F9855381 
 299      0F9AC0
 300 064a B1EB0B93 		.ascii	"\261\353\013\223#\357c\303<\025i\321THC&\244|\2147\213"
 300      23EF63C3 
 300      3C1569D1 
 300      54484326 
 300      A47C8C37 
 301 065f 557E8A32 		.ascii	"U~\2122\371\331U%\025|\361T\340\337\232\300\227`|\262"
 301      F9D95525 
 301      157CF154 
 301      E0DF9AC0 
 301      97607CB2 
 302 0673 CC347D12 		.ascii	"\3144}\022&L\225B\022\243\340\206\274\247\35445>\024"
 302      264C9542 
 302      12A3E086 
 302      BCA7EC34 
 302      353E14
 303 0686 98257E0A 		.ascii	"\230%~\012\017$'\255\375;}\322\226N\232\361\245)\223"
 303      0F2427AD 
 303      FD3B7DD2 
 303      964E9AF1 
 303      A52993
 304 0699 96CEB65A 		.ascii	"\226\316\266Z\304\2147n\312\226w\227=l\306\255X\347"
 304      C48C376E 
 304      CA967797 
 304      3D6CC6AD 
 304      58E7
 305 06ab 8DD4197F 		.ascii	"\215\324\031\177t\\T\226IQ\3518\250\017\331S\006aO\244"
 305      745C5496 
 305      4951E938 
 305      A80FD953 
 305      06614FA4 
 306 06bf 060CD738 		.ascii	"\006\014\3278c\220\265(\262\304s\327\364\022\227\213"
 306      6390B528 
 306      B2C473D7 
 306      F412978B 
 307 06cf 8CE4F8C8 		.ascii	"\214\344\370\310M.\027\321!\251\230\321\370\3053\336"
ARM GAS  C:\Users\prana\AppData\Local\Temp\ccNLz197.s 			page 24


 307      4D2E17D1 
 307      21A998D1 
 307      F8C533DE 
 308 06df 87BF63A5 		.ascii	"\207\277c\245%\360\217\207\301\177\261:\024\310\030"
 308      25F08F87 
 308      C17FB13A 
 308      14C818
 309 06ee 0F88BC0C 		.ascii	"\017\210\274\014\366\277ERAz\367\244\276/\036\273\322"
 309      F6BF4552 
 309      417AF7A4 
 309      BE2F1EBB 
 309      D2
 310 06ff 30EA92AF 		.ascii	"0\352\222\257\"\026\030\326\233\234i\274]n\253\357?"
 310      221618D6 
 310      9B9C69BC 
 310      5D6EABEF 
 310      3F
 311 0710 A13FCE15 		.ascii	"\241?\316\025B\240\206A\177\015\\A\305\217\340\333\034"
 311      42A08641 
 311      7F0D5C41 
 311      C58FE0DB 
 311      1C
 312 0721 4662FBE7 		.ascii	"Fb\373\347\374&\2746\\TX\034~\341O\005\353\326\027\255"
 312      FC26BC36 
 312      5C54581C 
 312      7EE14F05 
 312      EBD617AD 
 313 0735 0EAF7AAE 		.ascii	"\016\257z\256`\335\312\305\253V\376\343\327k\012_\371"
 313      60DDCAC5 
 313      AB56FEE3 
 313      D76B0A5F 
 313      F9
 314 0746 CB82D5CC 		.ascii	"\313\202\325\314V\264\356\325g\326\277d\307\237_\025"
 314      56B4EED5 
 314      67D6BF64 
 314      C79F5F15 
 315 0756 16177AFF 		.ascii	"\026\027z\377\272\2668\\T\264\376\345\342\202bLS_.,"
 315      BAB6385C 
 315      54B4FEE5 
 315      E282624C 
 315      535F2E2C 
 316 076a 2A7C298C 		.ascii	"*|)\214\256W\274\253\327\274\270r\355\237\237\017\027"
 316      AE57BCAB 
 316      D7BCB872 
 316      ED9F9F0F 
 316      17
 317 077b FFBE70CD 		.ascii	"\377\276p\315\372\260\243H\277\260>\363\354s*\373\031"
 317      FAB0A348 
 317      BFB03EF3 
 317      EC732AFB 
 317      19
 318 078c 94608E24 		.ascii	"\224`\216$"
 319              		.text
 320              		.section	.gnu.lto_CySysFlashSetWaitCycles.b369ff27,"",%progbits
 321 0000 789C9554 		.ascii	"x\234\225T\353KTA\024?g\346>\366\241\273V\020T\233\030"
 321      EB4B5441 
 321      143F67E6 
ARM GAS  C:\Users\prana\AppData\Local\Temp\ccNLz197.s 			page 25


 321      3EF6A1BB 
 321      5610549B 
 322 0015 2426440A 		.ascii	"$&D\012\006\375\001A}\215\374X\024b\033\005\241\266"
 322      06FD0141 
 322      7D8DFC58 
 322      14621B05 
 322      A1B6
 323 0027 69D02747 		.ascii	"i\320'Gw\327\036D\004QA&\022\021\225\226\317L77\273"
 323      77D71E44 
 323      04514126 
 323      12119596 
 323      CF4C3737 
 324 003c 49D6874A 		.ascii	"I\326\207J\321\244\017=\2544,BH\303\324B\275\235\271"
 324      D1A40F3D 
 324      AC342C42 
 324      48C3D442 
 324      BD9DB9
 325 004f A35BF610 		.ascii	"\243[\366\020\032\330s\357\234\371\235\337\371\375\346"
 325      1AD873EF 
 325      9CF99DDF 
 325      F9FDE6
 326 005e CEAC0608 		.ascii	"\316\254\006\010r\234\322\0006\321\263\210~\350\001"
 326      729CD200 
 326      36D1B388 
 326      7EE801
 327 006d 64A7BB01 		.ascii	"d\247\273\001\312\\\214\361x*\010\217\326\237\005\""
 327      CA5C8CF1 
 327      782A088F 
 327      D69F0522 
 328 007d 89A35BA5 		.ascii	"\211\243[\2455\246;i\303I\353\363i\203\231\317)\341"
 328      35A63B69 
 328      C349EBF3 
 328      698399CF 
 328      29E1
 329 008f 71DDA1C5 		.ascii	"q\335\241\305$s>\355\232\177q#\312\027\341B(e\\\323"
 329      24733EED 
 329      9A7F7123 
 329      CA17E142 
 329      28655CD3 
 330 00a3 0D9352A5 		.ascii	"\015\223R\245\370\225\3150\354<:\034c\231W\005\215\267"
 330      F895CD30 
 330      EC3C3A1C 
 330      63995705 
 330      8DB7
 331 00b5 5DCD39E2 		.ascii	"]\3159\342\232\205Q\016`3G\036\340U\314$To\244\341\""
 331      9A85510E 
 331      6033471E 
 331      E055CC24 
 331      546FA4E1 
 332 00ca 1F67518E 		.ascii	"\037gQ\216\250\321t\354\351\205!\237\2342L\243i\317"
 332      A8D174EC 
 332      E985219F 
 332      9C324CA3 
 332      69CF
 333 00dc C4FB4B7E 		.ascii	"\304\373K~\276\026\201\336OvOt`\306\025!\312\205\250"
 333      BE1681DE 
 333      4F764F74 
ARM GAS  C:\Users\prana\AppData\Local\Temp\ccNLz197.s 			page 26


 333      60C61521 
 333      CA85A8
 334 00ef 0C0A7794 		.ascii	"\014\012w\224s\254AN|x\035\003x\015\003@)\300Z\314\220"
 334      73AC414E 
 334      7C781D03 
 334      780D0340 
 334      29C05ACC 
 335 0104 F0335F5E 		.ascii	"\3603_^\267\031<\323)}Qw:\342I\277,K\255\306J\337ya"
 335      B7193CD3 
 335      297D5177 
 335      3AE249BF 
 335      2C4BADC6 
 336 011c 95A545B9 		.ascii	"\225\245E\271\2067TyN\000\263\003\216(\302\0166\316"
 336      86375479 
 336      4E00B303 
 336      8E28C20E 
 336      36CE
 337 012e 9E4D3622 		.ascii	"\236M6\"Rv\032\336\304t%\030\353\320\240}E\231\251\337"
 337      52761ADE 
 337      C4742518 
 337      EBD0A07D 
 337      4599A9DF 
 338 0142 6E09DB0E 		.ascii	"n\011\333\016\013\253z\325\375\276\324e\032\310\244"
 338      0BAB7AD5 
 338      FDBED465 
 338      1AC8A4
 339 0151 8EB2B141 		.ascii	"\216\262\261A\022tS\006\267\014\036\031\2742$\313\340"
 339      12745306 
 339      B70C1E19 
 339      BC3224CB 
 339      E0
 340 0162 93C12F03 		.ascii	"\223\301/\003\300(\261\312\255\033cL>\371G\014[-\225"
 340      C028B1CA 
 340      AD1B634C 
 340      3EF9470C 
 340      5B2D95
 341 0175 CB659F30 		.ascii	"\313e\2370\227;\021\213\215\2744Kg\3041!R\242\334\260"
 341      973B118B 
 341      8DBC344B 
 341      67C43121 
 341      52A2DCB0 
 342 0189 996C5F8F 		.ascii	"\231l_\217\245Tn\302 2G\0215&4\274\303HO\370C\353:U"
 342      A5546EC2 
 342      20324711 
 342      352634BC 
 342      C3484FF8 
 343 01a1 AD5375DF 		.ascii	"\255Su\337\350\223*\257\334G\035S\260\001\225\2731\306"
 343      E8932AAF 
 343      DC471D53 
 343      B00195BB 
 343      31C6
 344 01b3 219ECA87 		.ascii	"!\236\312\207\261\363\373\211\201\317\027P\301\015\202"
 344      B1F3FB89 
 344      81CF1750 
 344      C10D82
 345 01c2 9F8B76F6 		.ascii	"\237\213v\366\230\022\356r\366kj\250n\304\245\246\015"
 345      9812EE72 
ARM GAS  C:\Users\prana\AppData\Local\Temp\ccNLz197.s 			page 27


 345      F66B6AA8 
 345      6EC4A5A6 
 345      0D
 346 01d3 C212524E 		.ascii	"\302\022RN\270\245\355\262\247\032\253\312\"\364\025"
 346      B8A5EDB2 
 346      A71AABCA 
 346      22F415
 347 01e2 DDD8443B 		.ascii	"\335\330D;\336(i\261\031\253\021\2061<]1\275B\021\232"
 347      DE2869B1 
 347      19AB1186 
 347      313C5D31 
 347      BD42119A 
 348 01f6 8AB36322 		.ascii	"\212\263c\"zX)\230\266m\333\217\267\010N\255\317]J\227"
 348      7A582998 
 348      B66DDB8F 
 348      B7084EAD 
 348      CF5D4A97 
 349 020a B0059465 		.ascii	"\260\005\224eB\344\302B\332\026\242%*G\265\006\375Y"
 349      42E4C242 
 349      DA16A225 
 349      2A47B506 
 349      FD59
 350 021c DCF138F9 		.ascii	"\334\3618\371\253\307\304Y\3211\015o'<\352\360x\251"
 350      ABC7C459 
 350      D1310D6F 
 350      273CEAF0 
 350      78A9
 351 022e F2389BF0 		.ascii	"\3628\233\360\350^\314Ak\302\301\270\241\340\036\252"
 351      E85ECC41 
 351      6BC2C1B8 
 351      A1E01EAA 
 352 023e 98D31B9E 		.ascii	"\230\323\033\236J\370\362\322\002\361\334z\360\250\302"
 352      4AF8F2D2 
 352      02F1DC7A 
 352      F0A8C2
 353 024d A5DA22B6 		.ascii	"\245\332\"\266\375\227\251\230c\312\353\3104\340\370"
 353      FD97A998 
 353      63CAEBC8 
 353      34E0F8
 354 025c 6A65AA36 		.ascii	"je\2526\276\376\247\251\366\326\370C]\261g\343\235\204"
 354      BEFEA7A9 
 354      F6D6F843 
 354      5DB167E3 
 354      9D84
 355 026e 2913DE2C 		.ascii	")\023\336,Q\246\206\247\232\346L%/f\252=a\252\337Tp"
 355      51A686A7 
 355      9AE64C25 
 355      2F66AA3D 
 355      61AADF54 
 356 0283 1F55FC34 		.ascii	"\037U\3744\365j\245\312\372i\201x\272\354I\313\257\332"
 356      F56AA5CA 
 356      FA698178 
 356      BAEC49CB 
 356      AFDA
 357 0295 328CCF9B 		.ascii	"2\214\317\233\312\370\233\251\035\277\231\272\353\230"
 357      CAF89BA9 
 357      1DBF99BA 
ARM GAS  C:\Users\prana\AppData\Local\Temp\ccNLz197.s 			page 28


 357      EB98
 358 02a3 F23B325D 		.ascii	"\362;2]P\343\245\243\034\261Z\007|\262\026\3768\310"
 358      50E3A5A3 
 358      1CB15A07 
 358      7CB216FE 
 358      38C8
 359 02b5 1E9B0E3C 		.ascii	"\036\233\016<`\007\035dZ\253\037\211}K\226m\275\010"
 359      60071D64 
 359      5AAB1F89 
 359      7D4B966D 
 359      BD08
 360 02c7 780F0351 		.ascii	"x\017\003Q\236\344\360\270\347\356D\304\352\035`\377"
 360      9EE4F0B8 
 360      E7EE44C4 
 360      EA1D60FF 
 361 02d7 24A27F13 		.ascii	"$\242\177\023\264\210\210\256\200,\374\204\345\326\263"
 361      B48888AE 
 361      802CFC84 
 361      E5D6B3
 362 02e6 5D0E5A8E 		.ascii	"]\016Z\216Q\2721\304B\335\326l\015\026\004Cy\305\301"
 362      51BA31C4 
 362      42DDD66C 
 362      0D160443 
 362      79C5C1
 363 02f9 3DBB730B 		.ascii	"=\273s\013KB\371\301\235\333r\0137o\334\271\371\310"
 363      4B42F9C1 
 363      9DDB720B 
 363      376FDCB9 
 363      F9C8
 364 030b 96037987 		.ascii	"\226\003y\207\366m\310\007mo(x\320\267\277\2408\030"
 364      F66DC807 
 364      6D6F2878 
 364      D0B7BFA0 
 364      3818
 365 031d 0A951415 		.ascii	"\012\225\024\025\347\026\023\370\007B9\234s"
 365      E71613F8 
 365      0742399C 
 365      73
 366              		.text
 367              		.section	.gnu.lto_.symbol_nodes.b369ff27,"",%progbits
 368 0000 789C5D8C 		.ascii	"x\234]\214=\012\0021\024\204'\357'\311\266^@\255\304"
 368      3D0A0231 
 368      148427EF 
 368      27C9B65E 
 368      40ADC4
 369 0013 C2D6EBBD 		.ascii	"\302\326\353\275\260\245\205z\005!\227\320\312b+\021"
 369      B0A5857A 
 369      052197D0 
 369      CA622B11 
 370 0023 0BB116D9 		.ascii	"\013\261\026\331Rlm\305(\010\356N3|\337\300\010\034"
 370      526C6DC5 
 370      2808EE4E 
 370      337CDFC0 
 370      081C
 371 0035 EE282136 		.ascii	"\356(!6`}\002Jm\323&1\240@\032\000Lb\2567\221\032\365"
 371      607D024A 
 371      6DD32631 
ARM GAS  C:\Users\prana\AppData\Local\Temp\ccNLz197.s 			page 29


 371      A0401A00 
 371      4C62AE37 
 372 004c 9533FEA9 		.ascii	"\2253\376\251]\032\027A&\035\341\242\351W\224\3374*"
 372      5D1A1741 
 372      261DE1A2 
 372      E95794DF 
 372      342A
 373 005e 1CCC77D8 		.ascii	"\034\314w\330[\350pe\361\237Y\"\362s\306\022\320,\217"
 373      5BE87065 
 373      F19F5922 
 373      F273C612 
 373      D02C8F
 374 0071 C402D4AB 		.ascii	"\304\002\324\253O\023\352\363\204\205\321^\347,\036"
 374      4F13EAF3 
 374      8485D15E 
 374      E72C1E
 375 0080 B9DD4F59 		.ascii	"\271\335OY\003\362\355\345X+\344\303\205X=\232\305c"
 375      03F2EDE5 
 375      582BE4C3 
 375      85583D9A 
 375      C563
 376 0092 88374282 		.ascii	"\2107B\2026\255"
 376      36AD
 377              		.text
 378              		.section	.gnu.lto_.refs.b369ff27,"",%progbits
 379 0000 789C6361 		.ascii	"x\234ca`d\340f`\000\222L\214\314\214\314@\202\001\000"
 379      6064E066 
 379      6000924C 
 379      8CCC8CCC 
 379      40820100 
 380 0014 01750022 		.ascii	"\001u\000\""
 381              		.text
 382              		.section	.gnu.lto_.decls.b369ff27,"",%progbits
 383 0000 789CAD57 		.ascii	"x\234\255W{P\024g\022\237ofw\331]\026\360\320\030\256"
 383      7B501467 
 383      129F6F66 
 383      77D95D16 
 383      F0D018AE 
 384 0014 8EBAC354 		.ascii	"\216\272\303T,\271?\302i\364\256R\251\272\252K\2664"
 384      2CB93FC2 
 384      69F4AE52 
 384      A9BAAA4B 
 384      B634
 385 0026 D6C5044B 		.ascii	"\326\305\004K\242I\252\266\212[\327\0217\301]\262\273"
 385      A249AAB6 
 385      8A5BD711 
 385      37C15DB2 
 385      BB
 386 0037 5442AEAE 		.ascii	"TB\256\256n\024\304\267\001\037\011\370\244\300\360"
 386      6E14C4B7 
 386      011F09F8 
 386      A4C0F0
 387 0046 1050740D 		.ascii	"\020Pt\015*\370\330\370\210\212\"\012\242 \012\370@"
 387      2AF8D8F8 
 387      888A220A 
 387      A2200AF8 
 387      40
ARM GAS  C:\Users\prana\AppData\Local\Temp\ccNLz197.s 			page 30


 388 0057 C4270287 		.ascii	"\304'\002\207\012\012\327\337cvf\211{\271?2E\357\314"
 388      0A0AD7DF 
 388      63766689 
 388      7BB93F32 
 388      45EFCC
 389 006a D7D3FDEB 		.ascii	"\327\323\375\353\337\327\335\3233h8\304\341cj8\307\235"
 389      DFD7DDD3 
 389      336838C4 
 389      E1636A38 
 389      C79D
 390 007c E639CE02 		.ascii	"\3469\316\0022\014\207\016ts@\264 \361 \321 \345 ?\200"
 390      320C870E 
 390      747340B4 
 390      20F120D1 
 390      20E5203F 
 391 0091 4CE0E861 		.ascii	"L\340\350a\0009\014\342\0039\012r\022\344\014H\035H"
 391      00390CE2 
 391      03390A72 
 391      12E40C48 
 391      1D48
 392 00a3 3DC81D90 		.ascii	"=\310\035\220\273 8\3023.\360\300~\021 \221 c@\252A"
 392      BB2038C2 
 392      332EF0C0 
 392      7E112091 
 392      206340AA 
 393 00b8 8619368E 		.ascii	"\206\0316\2167\304Q\307'p\352a\261\021\254y\020\035"
 393      37C451C7 
 393      2770EA61 
 393      B111AC79 
 393      101D
 394 00ca 881651DC 		.ascii	"\210\026Q\334^\206\1778H\034\314M7\"\016\216!c\2600"
 394      5E867F38 
 394      481CCC4D 
 394      37220E8E 
 394      2163B030 
 395 00de C46EE471 		.ascii	"\304n\344q\364W\346x4\010\307\223\014_\216#\347\331"
 395      F457E678 
 395      3408C793 
 395      0C5F8E23 
 395      E7D9
 396 00f0 0B624234 		.ascii	"\013bB4\016\216\031\206h\\\214?Z\025c\014\310\005\320"
 396      0E8E1986 
 396      685C8C3F 
 396      5A15630C 
 396      C805D0
 397 0103 BF02E743 		.ascii	"\277\002\347Cp\036\013\347s\014;\204\341\343Z\324s\201"
 397      701E0BE7 
 397      730C3B84 
 397      E1E35AD4 
 397      7381
 398 0115 F5AA7BC9 		.ascii	"\365\252{\311\236q\375\3028Z{5\037/\343 \307\222c\343"
 398      9E71FDC2 
 398      385A7B35 
 398      1F2FE320 
 398      C79263E3 
 399 0129 58B837E4 		.ascii	"X\2707\344x\032\206\201c\335\015\022\343\005\217\256"
 399      781A8681 
ARM GAS  C:\Users\prana\AppData\Local\Temp\ccNLz197.s 			page 31


 399      63DD0D12 
 399      E3058FAE 
 400 0139 9D2A2915 		.ascii	"\235*)\025\372x4\301\210p\267E\200j\327\375\003\317"
 400      FA7834C1 
 400      8870B745 
 400      806AD7FD 
 400      03CF
 401 014b C2A80A5B 		.ascii	"\302\250\012[\264=+\236\026W&\301\221%I<\257\270\326"
 401      B43D2B9E 
 401      165726C1 
 401      9125493C 
 401      AFB8D6
 402 015e B475F418 		.ascii	"\264u\364\030\204Pbt!\243b3\206\2114\"\015,\037\327"
 402      84506274 
 402      21A36233 
 402      86893422 
 402      0D2C1FD7 
 403 0172 6EBC190E 		.ascii	"n\274\031\016\3131F\024\363\202\347\353s\357\267\351"
 403      CB314614 
 403      F382E7EB 
 403      73EFB7E9 
 404 0182 90317699 		.ascii	"\2201v\231$-\226\262\322\245\310\351\034*C\321\250\024"
 404      242D96B2 
 404      D2A5C8E9 
 404      1C2A43D1 
 404      A814
 405 0194 45736827 		.ascii	"Esh'\212\305\241JP\034\207\212AY\004\312B\034\256\275"
 405      8AC5A14A 
 405      501C878A 
 405      415904CA 
 405      421CAEBD 
 406 01a8 B1E2AF07 		.ascii	"\261\342\257\007$i\024*GF\264\003\011\304\004\0127\301"
 406      2469142A 
 406      4746B403 
 406      09C4040A 
 406      37C1
 407 01ba 887F4189 		.ascii	"\210\177A\211\271.\271U\242\207@\321@\037\251\270GS"
 407      B92EB955 
 407      A28740D1 
 407      401FA9B8 
 407      4753
 408 01cc EEB9D937 		.ascii	"\356\271\3317\207B\205)\370\232o\270Y\332\245A\261F"
 408      87428529 
 408      F89A6FB8 
 408      59DAA541 
 408      B146
 409 01de 82EDBBF8 		.ascii	"\202\355\273\370{\211G^\000\336\255\000Gc`\302\261;"
 409      7B89475E 
 409      00DEAD00 
 409      476360C2 
 409      B13B
 410 01f0 5FD24571 		.ascii	"_\322Eqhr4\232\010\014\367\000\303h\306\260\002\030"
 410      6872349A 
 410      080CF700 
 410      C368C6B0 
 410      0218
 411 0202 EE028600 		.ascii	"\356\002\206\000\336]2\334\027ad\366Y\277l_\231\337"
ARM GAS  C:\Users\prana\AppData\Local\Temp\ccNLz197.s 			page 32


 411      DE5D32DC 
 411      176164F6 
 411      59BF6C5F 
 411      99DF
 412 0214 755C6B5A 		.ascii	"u\\kZ\341\317\001\332\013\341\3454p\350\007d\"m\014"
 412      E1CF01DA 
 412      0BE1E534 
 412      70E80764 
 412      226D0C
 413 0227 67301EDE 		.ascii	"g0\036\336\262\263\330\320\202\232\021\364\230\374t"
 413      B2B3D8D0 
 413      829A11F4 
 413      98FC74
 414 0236 20FA8B88 		.ascii	" \372\213\210pT\310\022.x\216\3658S\371O\034\376\345"
 414      7054C812 
 414      2E788EF5 
 414      3853F94F 
 414      1CFEE5
 415 0249 A83DD129 		.ascii	"\250=\321)`\344O>\017\313\007\001Q\320\021sB~\006\324"
 415      60E44F3E 
 415      0FCB0701 
 415      51D01173 
 415      427E06D4 
 416 025d 8BDEE799 		.ascii	"\213\336\347\231\031G\301y\305A\205G\351\2528\241\300"
 416      1947C179 
 416      C5418547 
 416      E9AA38A1 
 416      C0
 417 026e 3D21B9A3 		.ascii	"=!\271\243|\307\266\025k\204\267I\351N\014?\361E\320"
 417      7CC7B615 
 417      6B84B749 
 417      E94E0C3F 
 417      F145D0
 418 0281 8EE26159 		.ascii	"\216\342aY\337}vK(\355\250Q\260l\254\\r?T\230I\012\373"
 418      DF7D764B 
 418      28EDA851 
 418      B06CAC5C 
 418      723F5498 
 419 0298 687B7185 		.ascii	"h{q\205>Xw\035\014\326]\276\346\316O\322%\011\241j\250"
 419      3E58771D 
 419      0CD65DBE 
 419      E6CE4FD2 
 419      2509A16A 
 420 02ad 42D588EE 		.ascii	"B\325\210\356\302-|\272\370\267Q\337bK)]\212\341\211"
 420      C22D7CBA 
 420      F8B751DF 
 420      624B295D 
 420      8AE189
 421 02c0 D90100D8 		.ascii	"\331\001\000\330O\212u\010E\301\357\\\015\265\275\334"
 421      4F8A7508 
 421      45C1EF5C 
 421      0DB5BDDC 
 422 02d0 7EA5D9F0 		.ascii	"~\245\331\360Z\236\344\253\220\332{3\377\225S\177K\222"
 422      5A9EE4AB 
 422      90DA7B33 
 422      FF95537F 
 422      4B92
ARM GAS  C:\Users\prana\AppData\Local\Temp\ccNLz197.s 			page 33


 423 02e2 8C1A6C84 		.ascii	"\214\032l\204\366)\310p\211O\225\250\005\266\177\030"
 423      F629C870 
 423      894F95A8 
 423      05B67F18 
 424 02f2 BD867735 		.ascii	"\275\206w5\234\221m\020\376I6\234\321\264'\212b\370"
 424      9C916D10 
 424      FE49369C 
 424      D1B4278A 
 424      62F8
 425 0304 0E7E962B 		.ascii	"\016~\226+\371\026Cd\236`\034Q0\216\2501|\004\343\373"
 425      F9164364 
 425      9E601C51 
 425      308EA831 
 425      7C04E3FB 
 426 0318 1D65E506 		.ascii	"\035e\345\006!\033\021\220\302\316\274&\304P\272\035"
 426      211B1190 
 426      C2CEBC26 
 426      C450BA1D 
 427 0328 01283F2A 		.ascii	"\001(?*(?\252Q\216\022\224\347\213\016W\031\205b\212"
 427      283FAA51 
 427      8E1294E7 
 427      8B0E5719 
 427      85628A
 428 033b F268E9EE 		.ascii	"\362h\351\356\306\010\015O\233\021\357\022tU\235m-\032"
 428      C6080D4F 
 428      9B11EF12 
 428      74559D6D 
 428      2D1A
 429 034d A2C38FE3 		.ascii	"\242\303\217\343qD\224\255+zv\204\250\263T\036\220\245"
 429      714494AD 
 429      2B7A7684 
 429      A8B3541E 
 429      90A5
 430 035f 9F48964E 		.ascii	"\237H\226N \226\246\374\234K\235\341@.\017\3105d\232"
 430      2096A6FC 
 430      9C4B9DE1 
 430      402E0FC8 
 430      35649A
 431 0372 FCECC00C 		.ascii	"\374\354\300\014\035S\330\035S\263;I\330\035)\274\270"
 431      1D53D81D 
 431      53B33B49 
 431      D81D29BC 
 431      B8
 432 0383 C1205453 		.ascii	"\301 TSv\303\355{\263x?\023\312\256qswC\250\232\310"
 432      76C3ED7B 
 432      B3783F13 
 432      CAAE7173 
 432      7743A89A 
 433 0398 9CB12A1E 		.ascii	"\234\261*\0365\204\307i\231\307\2113\215\177g4\266l"
 433      3584C769 
 433      99C78933 
 433      8D7F6734 
 433      B66C
 434 03aa 12FC34C0 		.ascii	"\022\3744\300\012\235Rh\234R\3238Cit\325\024\011B\003"
 434      0A9D5268 
 434      9C52D338 
 434      436974D5 
ARM GAS  C:\Users\prana\AppData\Local\Temp\ccNLz197.s 			page 34


 434      14094203 
 435 03be A5D1F1DD 		.ascii	"\245\321\361\335\266{:B\303\353\247qn}s=\012J\343\034"
 435      B67B3A42 
 435      C3EBA771 
 435      6E7D733D 
 435      0A4AE31C 
 436 03d2 A1512BD3 		.ascii	"\241Q+\323\270\276\374z\223\011x\264\303\250\363~\223"
 436      B8BEFC7A 
 436      930978B4 
 436      C3A8F37E 
 436      93
 437 03e3 D4BB47CA 		.ascii	"\324\273G\312\320b\033tV!q\226\220\200\213:B\240\254"
 437      D0621B74 
 437      56217196 
 437      90808B3A 
 437      42A0AC
 438 03f6 7ACBA05E 		.ascii	"z\313\240^X\316\023\002[\262\012v\004\354\331\033\220"
 438      58CE1302 
 438      5BB20A76 
 438      04ECD91B 
 438      90
 439 0407 FC0B012D 		.ascii	"\374\013\001-z\367\316\326\272\010\032\314\267\261\316"
 439      7AF7CED6 
 439      BA081ACC 
 439      B7B1CE
 440 0416 E49B89EF 		.ascii	"\344\233\211\357\243\363J\244\363r\244z\022i\323\216"
 440      A3F34AA4 
 440      F372A47A 
 440      1269D38E 
 441 0426 6AAF4EC8 		.ascii	"j\257N\310\243\221jwu\255\324\011EtQ\261\351vM\010\354"
 441      A3916A77 
 441      75ADD409 
 441      457451B1 
 441      E9764D08 
 442 043b 1B5D241E 		.ascii	"\033]$\036X\263\310W\024&\224\321\333\371\337o\2557"
 442      58B3C857 
 442      142694D1 
 442      DBF9DF6F 
 442      AD37
 443 044d E0DB97E0 		.ascii	"\340\333\227\3406j\244}\262\263l\260\302Hr5gl\300k'"
 443      366AA47D 
 443      B2B36CB0 
 443      C2487235 
 443      676CC06B 
 444 0462 FEE7AF9D 		.ascii	"\376\347\257\235x:\272\267?{\264\317$\354%\240\374\235"
 444      783ABAB7 
 444      3F7BB4CF 
 444      24EC25A0 
 444      FC9D
 445 0474 AACAAD82 		.ascii	"\252\312\255\202<\273\333\237\254\263\364.\301\025\273"
 445      3CBBDB9F 
 445      ACB3F42E 
 445      C115BB
 446 0483 061B6E51 		.ascii	"\006\033nQ\266\020\357\237\337#\247\300U\230\002\361"
 446      B610EF9F 
 446      DF23A7C0 
 446      559802F1 
ARM GAS  C:\Users\prana\AppData\Local\Temp\ccNLz197.s 			page 35


 447 0493 6C0A5C01 		.ascii	"l\012\\\001e3\235\310\336\301\242\022\201\320\302HM"
 447      65339DC8 
 447      DEC1A212 
 447      81D0C248 
 447      4D
 448 04a4 946BCED1 		.ascii	"\224k\316\321\313\277!\272\017L\250\225\252r;nH\264"
 448      CBBF21BA 
 448      0F4CA895 
 448      AA723B6E 
 448      48B4
 449 04b6 E3669B50 		.ascii	"\343f\233P\033\325]J_\325\037>\256Z\330&\351\311\216"
 449      1BD55D4A 
 449      5FD51F3E 
 449      AE5AD826 
 449      E9C98E
 450 04c9 0EE57679 		.ascii	"\016\345vy\351\363q\035\215#\232\376\033\253\327\205"
 450      E9F3711D 
 450      8D239AFE 
 450      1BABD785 
 451 04d9 088704B2 		.ascii	"\010\207\004\262\235\307\333z\013q\267\240\233\300\367"
 451      9DC7DB7A 
 451      0B71B7A0 
 451      9BC0F7
 452 04e8 066E0150 		.ascii	"\006n\001P\366]\315=\250\025NP\213\322\357\266\237'"
 452      F65DCD3D 
 452      A8154E50 
 452      8BD2EFB6 
 452      9F27
 453 04fa 79EDC089 		.ascii	"y\355\300\211\273E\243\344]\036\3507\250k\014\004X\211"
 453      BB45A3E4 
 453      5D1EE837 
 453      A86B0C04 
 453      5889
 454 050c D16D3041 		.ascii	"\321m0A\235\244\312\355rO\335\331\330VO\312\234%\265"
 454      9DA4CAED 
 454      724FDDD9 
 454      D8564FCA 
 454      9C25B5
 455 051f 57B7BE9A 		.ascii	"W\267\276\232\003=\265D\212j\341\261\035j\220S\205."
 455      033DB544 
 455      8A6AE1B1 
 455      1D6A9053 
 455      852E
 456 0531 230D5ED1 		.ascii	"#\015^\321\202\337!\005\257\250Z\235i\020\216h\010\227"
 456      82DF2105 
 456      AFA85A9D 
 456      69108E68 
 456      0897
 457 0543 C567EB06 		.ascii	"\305g\353\006\302\344\326\254S\265f\227\222\355.\331"
 457      C2E4D6AC 
 457      53B56697 
 457      92ED2ED9 
 458 0553 FF2EF16F 		.ascii	"\377.\361o\275P\320\314\013?Q\377\207\031\035\355\241"
 458      BD50D0CC 
 458      0B3F51FF 
 458      87191DED 
 458      A1
ARM GAS  C:\Users\prana\AppData\Local\Temp\ccNLz197.s 			page 36


 459 0564 74784761 		.ascii	"txGa\354\203\031\017\330\347\200\017\277\245\373\033"
 459      EC83190F 
 459      D8E7800F 
 459      BFA5FB1B 
 460 0574 D74B8270 		.ascii	"\327K\202p\231\332\0368yL'\364\322\353\323\333\253\236"
 460      99DA1E38 
 460      794C27F4 
 460      D2EBD3DB 
 460      AB9E
 461 0586 9BA89F16 		.ascii	"\233\250\237\026\226g6\237{!\3407\254\304\336\230\221"
 461      9667369F 
 461      7B21E037 
 461      ACC4DE98 
 461      91
 462 0597 EA17E663 		.ascii	"\352\027\346c\004\365F\177\212F\335\264\232O\257\357"
 462      04F5467F 
 462      8A46DDB4 
 462      9A4FAFEF 
 463 05a7 9A1799C5 		.ascii	"\232\027\231\305>T\376\246!\323\341\001X\337'\326=("
 463      3E54FEA6 
 463      21D3E101 
 463      58DF27D6 
 463      3D28
 464 05b9 52F60163 		.ascii	"R\366\001c!gM\323\200\021\275>:6\037;\344\255\273\373"
 464      21674DD3 
 464      8011BD3E 
 464      3A361F3B 
 464      E4ADBBFB 
 465 05cd 8FB59274 		.ascii	"\217\265\222tj\"6C\217`\223}h\264\337\031b\200\353$"
 465      6A223643 
 465      8F60937D 
 465      68B4DF19 
 465      6280EB24 
 466 05e1 FC7595CD 		.ascii	"\374u\225\315\340%\234{\377\375\207\314\0012\203\376"
 466      E0259C7B 
 466      FFFD87CC 
 466      013283FE 
 467 05f1 03ADD68B 		.ascii	"\003\255\326\213^'\251\241/\232\2665c$I\217\0158\226"
 467      5E27A9A1 
 467      2F9AB635 
 467      6324498F 
 467      0D3896
 468 0604 3BF6BAEB 		.ascii	";\366\272\353\254\334\371 \\(\320\222\026_\261\254c"
 468      ACDCF920 
 468      5C28D092 
 468      165FB1AC 
 468      63
 469 0615 8F1E8D8E 		.ascii	"\217\036\215\216}y\204\247\200\032<Bu\035\302\021\236"
 469      7D7984A7 
 469      801A3C42 
 469      751DC211 
 469      9E
 470 0626 8041BF52 		.ascii	"\200A\277R \034\220\304i;\266\277X7\276@\362\345\341"
 470      201C90C4 
 470      693BB6BF 
 470      5837BE40 
 470      F2E5E1
ARM GAS  C:\Users\prana\AppData\Local\Temp\ccNLz197.s 			page 37


 471 0639 D7D3F86B 		.ascii	"\327\323\370k0\356\014\304\370\0365Ve\351\036.*z\206"
 471      30EE0CC4 
 471      F81E3556 
 471      65E91E2E 
 471      2A7A86
 472 064c C683DBD9 		.ascii	"\306\203\333\331\302\202E\206\240\331\037\220\263?\221"
 472      C2824586 
 472      A0D91F90 
 472      B33F91
 473 065b 247F6375 		.ascii	"$\177cu_\215\226VN\017\313}\017K\367\205\261\212\343"
 473      5F8D9656 
 473      4E0FCB7D 
 473      0F4BF785 
 473      B18AE3
 474 066e DBF72E1E 		.ascii	"\333\367.\036\256\015e\305\361\311\305y\016`\203\004"
 474      AE0D65C5 
 474      F1C9C579 
 474      0E608304 
 475 067e EC0529CE 		.ascii	"\354\005)\316\000+\016Z~}\303\025-\216\234\376\177}"
 475      002B0E5A 
 475      7E7DC315 
 475      2D8E9CFE 
 475      7F7D
 476 0690 2DE25998 		.ascii	"-\342Y\230\2774S\247\306\037\012\212\017\037\212\221"
 476      BF3453A7 
 476      C61F0A8A 
 476      0F1F8A91 
 477 06a0 F85BA3A0 		.ascii	"\370[\243\240\344\211F\3755\206\023\242lO\342\351\327"
 477      E48946FD 
 477      358613A2 
 477      6C4FE2E9 
 477      D7
 478 06b1 189CF1F4 		.ascii	"\030\234\361\364\034\332\355\325\251\215\313\003>\335"
 478      1CDAEDD5 
 478      A98DCB03 
 478      3EDD
 479 06bf 1631E345 		.ascii	"\0261\343E\304x\360QC\263^m<\024`\274\230\031/&\306"
 479      C478F051 
 479      43B35E6D 
 479      3C1460BC 
 479      98192F26 
 480 06d4 55ADD266 		.ascii	"U\255\322f\255p\234\366@\343\312}9\312\230k|\032\237"
 480      AD709CF6 
 480      40E3CA7D 
 480      39CA986B 
 480      7C1A9F
 481 06e7 BD1C8FB9 		.ascii	"\275\034\217\271%\274\021\245\363\376\272\016!6\347"
 481      25BC11A5 
 481      F3FEBA0E 
 481      2136E7
 482 06f6 7E9E9D0C 		.ascii	"~\236\235\014\376\245\331\351\177zz\225I\315\010#*\214"
 482      FEA5D9E9 
 482      7F7A7A95 
 482      49CD0823 
 482      2A8C
 483 0708 3219A34C 		.ascii	"2\031\243L\302hY\313\375>\366\014\216\203e\372\203\307"
 483      C26859CB 
ARM GAS  C:\Users\prana\AppData\Local\Temp\ccNLz197.s 			page 38


 483      FD3EF60C 
 483      8E8365FA 
 483      83C7
 484 071a 85DAA05D 		.ascii	"\205\332\240]\260\214g]\260\224'\221\312jO^e\377\007"
 484      B08C675D 
 484      B0942791 
 484      CA6A4F5E 
 484      65FF07
 485 072d 2CC34F7A 		.ascii	",\303OzY\361\265\333!\254\017p_\224\324\334\222BG>\244"
 485      59F1B5DB 
 485      21AC0F70 
 485      5F94D4DC 
 485      9242473E 
 486 0742 2BF868B4 		.ascii	"+\370h\264\234\307p+\371H\031\024\243UW\366\257Dj\353"
 486      9CC7702B 
 486      F9481914 
 486      A35557F6 
 486      AF446AEB 
 487 0756 A1A0D668 		.ascii	"\241\240\326h\025\217\253z\261\277\365L\210z\247x\356"
 487      158FAB7A 
 487      B1BFF54C 
 487      887AA778 
 487      EE
 488 0767 297457B3 		.ascii	")tW\263\235\256&;=u\243\367k\377\364\247/\360\265\265"
 488      9DAE263B 
 488      3D75A3F7 
 488      6BFFF4A7 
 488      2FF0B5B5 
 489 077b 7D9BFDB5 		.ascii	"}\233\375\265\313\000\377\017\307\252\334?0\261'\267"
 489      CB00FF0F 
 489      C7AADC3F 
 489      30B127B7 
 490 078b B93CBB4E 		.ascii	"\271<\273NO\\\277\341Mh\015\377r\3379j_\030\334\264"
 490      4F5CBFE1 
 490      4D680DFF 
 490      72DF396A 
 490      5F18DCB4 
 491 079f 7E60B9BF 		.ascii	"~`\271\277?\243\014\021\367lp\317\242\356\345\245=7"
 491      3FA30C11 
 491      F76C70CF 
 491      A2EEE5A5 
 491      3D37
 492 07b1 34FF6BD4 		.ascii	"4\377k\324\257\343\361\250_\313\343Q\217\027\3403\260"
 492      AFE3F1A8 
 492      5FCBE351 
 492      8F17E033 
 492      B0
 493 07c2 718D14AE 		.ascii	"q\215\024\256\336\356\205\200\355\256g\333]O"
 493      DEEE8580 
 493      EDAE67DB 
 493      5D4F
 494 07d0 B6DBD453 		.ascii	"\266\333\324SY\024\220\233C\001\306\033\230\361\006"
 494      5914909B 
 494      4301C61B 
 494      98F106
 495 07df 622C150E 		.ascii	"b,\025\016x\015j\343s\001\306\3372c|\326\277\367\341"
 495      780D6AE3 
ARM GAS  C:\Users\prana\AppData\Local\Temp\ccNLz197.s 			page 39


 495      7301C6DF 
 495      32637CD6 
 495      BFF7E1
 496 07f2 EC18F3A4 		.ascii	"\354\030\363\244I\234.\325\356\360L~s\334{\242CtY=\342"
 496      499C2ED5 
 496      EEF04C7E 
 496      73DC7BA2 
 496      4374593D 
 497 0807 BCC40467 		.ascii	"\274\304\004g\252\313&Zf&8\315S,\2664OZ\212\350\216"
 497      AACB265A 
 497      662638CD 
 497      532CB634 
 497      4F5A8AE8 
 498 081c 5BC069B1 		.ascii	"[\300i\261\341[\257\230\323\022\322\334\323\222\255"
 498      E15BAF98 
 498      D312D2DC 
 498      D392AD
 499 082b EE05E664 		.ascii	"\356\005\346d\247\355\363w\255\266\317SS\364\2664\267"
 499      A7EDF377 
 499      ADB6CF53 
 499      53F4B634 
 499      B7
 500 083c C7EA4975 		.ascii	"\307\352Iu\007\2031\247\021\2278\0337\022\300\354t\314"
 500      078331A7 
 500      1197381B 
 500      3712C0EC 
 500      74CC
 501 084e B7278D1D 		.ascii	"\267'\215\035\241\235%\272=N\227\030\251\250?v\331="
 501      A19D25BA 
 501      3D4E9718 
 501      A9A83F76 
 501      D93D
 502 0860 E22CE797 		.ascii	"\342,\347\227\257*\252\004\321\363\261\325\3561\247"
 502      AF2AAA04 
 502      D1F3B1D5 
 502      EE31A7
 503 086f D9924537 		.ascii	"\331\222E7\340N\375\012\026`f\267Y\223\023D\233\307"
 503      E04EFD0A 
 503      166066B7 
 503      59931344 
 503      9BC7
 504 0881 EE74FC21 		.ascii	"\356t\374!(\237\031\366\271\260)\210;\325\341\021]#"
 504      289F19F6 
 504      B9B02988 
 504      3BD5E111 
 504      5D23
 505 0893 DC740BC5 		.ascii	"\334t\013\305\205\266\2244M\262h\235\037\342pz\026\270"
 505      85B69434 
 505      4DB2689D 
 505      1FE2707A 
 505      16B8
 506 08a5 9C5FEADC 		.ascii	"\234_\352\334\366\257\305D\317\277mo[R\\\316$\227ua"
 506      F6AFC544 
 506      CFBF6D6F 
 506      5B525CCE 
 506      24977561 
 507 08b9 CC7C3B04 		.ascii	"\314|;\004\216\211\375\352\255\277\374\021\022\225\342"
ARM GAS  C:\Users\prana\AppData\Local\Temp\ccNLz197.s 			page 40


 507      8E89FDEA 
 507      ADBFFC11 
 507      1295E2
 508 08c8 12DD6E4B 		.ascii	"\022\335nK\212\333i\213\261\271D+\360\267L\211\233\022"
 508      8ADB698B 
 508      B1B9442B 
 508      F0B74C89 
 508      9B12
 509 08da A8B02F4C 		.ascii	"\250\260/Lq\272<\226$G\252\305\352Zh\371s\334\224\270"
 509      71BA3C96 
 509      2447AAC5 
 509      EA5A68F9 
 509      73DC94B8 
 510 08ee 499664FB 		.ascii	"I\226d\373\\K\222\315\2065o8\234\016\361\015\321:\327"
 510      5C4B92CD 
 510      86356F38 
 510      9C0EF10D 
 510      D13AD7
 511 0901 CEEED91D 		.ascii	"\316\356\331\035\266\344\324y\242\305\355\2317O\234"
 511      B6E4D479 
 511      A2C5ED99 
 511      374F9C
 512 0910 0F8CD1A4 		.ascii	"\017\214\321\244\220\371\216\030w\212h\003b\016Gjr\362"
 512      90F98E18 
 512      778A6803 
 512      620E476A 
 512      72F2
 513 0922 17BF3EA3 		.ascii	"\027\277>\243@&\012\007\227\335\221\004\034t\346\264"
 513      40260A07 
 513      97DD9104 
 513      1C74E6B4 
 514 0932 E9D664CF 		.ascii	"\351\326d\317(\233\277\024\264\015~g{Ys$x\\\2516O\230"
 514      289BBF14 
 514      B40D7E67 
 514      7B597324 
 514      785CA936 
 515 0948 0D6BA064 		.ascii	"\015k\240d\036\300\370\305>Y\300\305\230?ML\3704!q\332"
 515      1EC0F8C5 
 515      3E59C0C5 
 515      983F4D4C 
 515      F8342171 
 516 095d 8C7712A6 		.ascii	"\214w\022\246'\232g\304\233\337O|\367\035\363\373\263"
 516      279A67C4 
 516      9BDF4F7C 
 516      F71DF3FB 
 516      B3
 517 096e 6726267C 		.ascii	"g&&|4k\266\371#\255KL\232\374\346\177\001\213\364N\021"
 517      346BB6F9 
 517      23AD4B4C 
 517      9AFCE67F 
 517      018BF44E 
 518              		.text
 519              		.section	.gnu.lto_.symtab.b369ff27,"",%progbits
 520 0000 43795379 		.ascii	"CySysFlashWriteRow\000"
 520      73466C61 
 520      73685772 
 520      69746552 
ARM GAS  C:\Users\prana\AppData\Local\Temp\ccNLz197.s 			page 41


 520      6F7700
 521 0013 00       		.ascii	"\000"
 522 0014 00       		.ascii	"\000"
 523 0015 00       		.ascii	"\000"
 524 0016 00000000 		.ascii	"\000\000\000\000\000\000\000\000"
 524      00000000 
 525 001e C7000000 		.ascii	"\307\000\000\000"
 526 0022 43795379 		.ascii	"CySysFlashSetWaitCycles\000"
 526      73466C61 
 526      73685365 
 526      74576169 
 526      74437963 
 527 003a 00       		.ascii	"\000"
 528 003b 00       		.ascii	"\000"
 529 003c 00       		.ascii	"\000"
 530 003d 00000000 		.ascii	"\000\000\000\000\000\000\000\000"
 530      00000000 
 531 0045 CB000000 		.ascii	"\313\000\000\000"
 532 0049 43794578 		.ascii	"CyExitCriticalSection\000"
 532      69744372 
 532      69746963 
 532      616C5365 
 532      6374696F 
 533 005f 00       		.ascii	"\000"
 534 0060 02       		.ascii	"\002"
 535 0061 00       		.ascii	"\000"
 536 0062 00000000 		.ascii	"\000\000\000\000\000\000\000\000"
 536      00000000 
 537 006a CF000000 		.ascii	"\317\000\000\000"
 538 006e 4379456E 		.ascii	"CyEnterCriticalSection\000"
 538      74657243 
 538      72697469 
 538      63616C53 
 538      65637469 
 539 0085 00       		.ascii	"\000"
 540 0086 02       		.ascii	"\002"
 541 0087 00       		.ascii	"\000"
 542 0088 00000000 		.ascii	"\000\000\000\000\000\000\000\000"
 542      00000000 
 543 0090 D2000000 		.ascii	"\322\000\000\000"
 544 0094 43794861 		.ascii	"CyHalt\000"
 544      6C7400
 545 009b 00       		.ascii	"\000"
 546 009c 02       		.ascii	"\002"
 547 009d 00       		.ascii	"\000"
 548 009e 00000000 		.ascii	"\000\000\000\000\000\000\000\000"
 548      00000000 
 549 00a6 EA000000 		.ascii	"\352\000\000\000"
 550              		.text
 551              		.section	.gnu.lto_.opts,"",%progbits
 552 0000 272D666D 		.ascii	"'-fmath-errno' '-fsigned-zeros' '-ftrapping-math' '"
 552      6174682D 
 552      6572726E 
 552      6F272027 
 552      2D667369 
 553 0033 2D666E6F 		.ascii	"-fno-trapv' '-fno-openmp' '-fno-openacc' '-mcpu=cor"
 553      2D747261 
ARM GAS  C:\Users\prana\AppData\Local\Temp\ccNLz197.s 			page 42


 553      70762720 
 553      272D666E 
 553      6F2D6F70 
 554 0066 7465782D 		.ascii	"tex-m0' '-mthumb' '-g' '-Os' '-Werror' '-ffunction-"
 554      6D302720 
 554      272D6D74 
 554      68756D62 
 554      2720272D 
 555 0099 73656374 		.ascii	"sections' '-ffat-lto-objects' '-finline-functions' "
 555      696F6E73 
 555      2720272D 
 555      66666174 
 555      2D6C746F 
 556 00cc 272D666C 		.ascii	"'-flto' '-fno-strict-aliasing'\000"
 556      746F2720 
 556      272D666E 
 556      6F2D7374 
 556      72696374 
 557              		.text
 558              		.cfi_sections	.debug_frame
 559              		.section	.text.CySysFlashWriteRow,"ax",%progbits
 560              		.align	1
 561              		.global	CySysFlashWriteRow
 562              		.code	16
 563              		.thumb_func
 564              		.type	CySysFlashWriteRow, %function
 565              	CySysFlashWriteRow:
 566              	.LFB0:
 567              		.file 1 "Generated_Source\\PSoC4\\CyFlash.c"
   1:Generated_Source\PSoC4/CyFlash.c **** /***************************************************************************//**
   2:Generated_Source\PSoC4/CyFlash.c **** * \file CyFlash.c
   3:Generated_Source\PSoC4/CyFlash.c **** * \version 5.60
   4:Generated_Source\PSoC4/CyFlash.c **** *
   5:Generated_Source\PSoC4/CyFlash.c **** * \brief Provides an API for the FLASH.
   6:Generated_Source\PSoC4/CyFlash.c **** *
   7:Generated_Source\PSoC4/CyFlash.c **** * \note This code is endian agnostic.
   8:Generated_Source\PSoC4/CyFlash.c **** *
   9:Generated_Source\PSoC4/CyFlash.c **** * \note Documentation of the API's in this file is located in the System
  10:Generated_Source\PSoC4/CyFlash.c **** * Reference Guide provided with PSoC Creator.
  11:Generated_Source\PSoC4/CyFlash.c **** *
  12:Generated_Source\PSoC4/CyFlash.c **** ********************************************************************************
  13:Generated_Source\PSoC4/CyFlash.c **** * \copyright
  14:Generated_Source\PSoC4/CyFlash.c **** * Copyright 2010-2017, Cypress Semiconductor Corporation.  All rights reserved.
  15:Generated_Source\PSoC4/CyFlash.c **** * You may use this file only in accordance with the license, terms, conditions,
  16:Generated_Source\PSoC4/CyFlash.c **** * disclaimers, and limitations in the end user license agreement accompanying
  17:Generated_Source\PSoC4/CyFlash.c **** * the software package with which this file was provided.
  18:Generated_Source\PSoC4/CyFlash.c **** *******************************************************************************/
  19:Generated_Source\PSoC4/CyFlash.c **** 
  20:Generated_Source\PSoC4/CyFlash.c **** #include "CyFlash.h"
  21:Generated_Source\PSoC4/CyFlash.c **** 
  22:Generated_Source\PSoC4/CyFlash.c **** 
  23:Generated_Source\PSoC4/CyFlash.c **** /*******************************************************************************
  24:Generated_Source\PSoC4/CyFlash.c **** * Cypress identified a defect with the Flash write functionality of the
  25:Generated_Source\PSoC4/CyFlash.c **** * PSoC 4000, PSoC 4000U, PSoC 4100, and PSoC 4200 devices. The 
  26:Generated_Source\PSoC4/CyFlash.c **** * CySysFlashWriteRow() function now checks the data to be written and, if 
  27:Generated_Source\PSoC4/CyFlash.c **** * necessary, modifies it to have a non-zero checksum. After writing to Flash, 
  28:Generated_Source\PSoC4/CyFlash.c **** * the modified data is replaced (Flash program) with 
ARM GAS  C:\Users\prana\AppData\Local\Temp\ccNLz197.s 			page 43


  29:Generated_Source\PSoC4/CyFlash.c **** * the correct (original) data.
  30:Generated_Source\PSoC4/CyFlash.c **** *******************************************************************************/
  31:Generated_Source\PSoC4/CyFlash.c **** #define CY_FLASH_CHECKSUM_WORKAROUND    (CY_PSOC4_4000 || CY_PSOC4_4100 || CY_PSOC4_4200 || CY_PSOC
  32:Generated_Source\PSoC4/CyFlash.c **** 
  33:Generated_Source\PSoC4/CyFlash.c **** #if (CY_IP_FM || ((!CY_PSOC4_4000) && CY_IP_SPCIF_SYNCHRONOUS) || (!CY_IP_FM) && CY_PSOC4_4000)
  34:Generated_Source\PSoC4/CyFlash.c ****     static CY_SYS_FLASH_CLOCK_BACKUP_STRUCT cySysFlashBackup;
  35:Generated_Source\PSoC4/CyFlash.c **** #endif /* (CY_IP_FM || ((!CY_PSOC4_4000) && CY_IP_SPCIF_SYNCHRONOUS) || (!CY_IP_FM) && CY_PSOC4_400
  36:Generated_Source\PSoC4/CyFlash.c **** 
  37:Generated_Source\PSoC4/CyFlash.c **** static cystatus CySysFlashClockBackup(void);
  38:Generated_Source\PSoC4/CyFlash.c **** static cystatus CySysFlashClockRestore(void);
  39:Generated_Source\PSoC4/CyFlash.c **** #if(CY_IP_SPCIF_SYNCHRONOUS)
  40:Generated_Source\PSoC4/CyFlash.c ****     static cystatus CySysFlashClockConfig(void);
  41:Generated_Source\PSoC4/CyFlash.c **** #endif  /* (CY_IP_SPCIF_SYNCHRONOUS) */
  42:Generated_Source\PSoC4/CyFlash.c **** 
  43:Generated_Source\PSoC4/CyFlash.c **** 
  44:Generated_Source\PSoC4/CyFlash.c **** /*******************************************************************************
  45:Generated_Source\PSoC4/CyFlash.c **** * Function Name: CySysFlashWriteRow
  46:Generated_Source\PSoC4/CyFlash.c **** ****************************************************************************//**
  47:Generated_Source\PSoC4/CyFlash.c **** *
  48:Generated_Source\PSoC4/CyFlash.c **** * Erases a row of Flash and programs it with the new data.
  49:Generated_Source\PSoC4/CyFlash.c **** *
  50:Generated_Source\PSoC4/CyFlash.c **** * The IMO must be enabled before calling this function. The operation of the
  51:Generated_Source\PSoC4/CyFlash.c **** * flash writing hardware is dependent on the IMO.
  52:Generated_Source\PSoC4/CyFlash.c **** *
  53:Generated_Source\PSoC4/CyFlash.c **** * For PSoC 4000, PSoC 4100 BLE and PSoC 4200 BLE devices (PSoC 4100 BLE and
  54:Generated_Source\PSoC4/CyFlash.c **** * PSoC 4200 BLE devices with 256K of Flash memory are not affected), this API
  55:Generated_Source\PSoC4/CyFlash.c **** * will automatically modify the clock settings for the device. Writing to
  56:Generated_Source\PSoC4/CyFlash.c **** * flash requires that changes be made to the IMO and HFCLK settings. The
  57:Generated_Source\PSoC4/CyFlash.c **** * configuration is restored before returning. This will impact the operation
  58:Generated_Source\PSoC4/CyFlash.c **** * of most of the hardware in the device.
  59:Generated_Source\PSoC4/CyFlash.c **** *
  60:Generated_Source\PSoC4/CyFlash.c **** * For PSoC 4000 devices this API will automatically modify the clock settings
  61:Generated_Source\PSoC4/CyFlash.c **** * for the device. Writing to flash requires that changes be made to the IMO
  62:Generated_Source\PSoC4/CyFlash.c **** * and HFCLK settings. The configuration is restored before returning. HFCLK
  63:Generated_Source\PSoC4/CyFlash.c **** * will have several frequency changes during the operation of this API between
  64:Generated_Source\PSoC4/CyFlash.c **** * a minimum frequency of the current IMO frequency divided by 8 and a maximum
  65:Generated_Source\PSoC4/CyFlash.c **** * frequency of 12 MHz. This will impact the operation of most of the hardware
  66:Generated_Source\PSoC4/CyFlash.c **** * in the device.
  67:Generated_Source\PSoC4/CyFlash.c **** *
  68:Generated_Source\PSoC4/CyFlash.c **** * \param rowNum The flash row number. The number of the flash rows is defined by
  69:Generated_Source\PSoC4/CyFlash.c **** * the \ref CY_FLASH_NUMBER_ROWS macro for the selected device. Refer to the
  70:Generated_Source\PSoC4/CyFlash.c **** * device datasheet for the details.
  71:Generated_Source\PSoC4/CyFlash.c **** * \note The target flash array is calculated based on the specified flash row.
  72:Generated_Source\PSoC4/CyFlash.c **** *
  73:Generated_Source\PSoC4/CyFlash.c **** * \param rowData Array of bytes to write. The size of the array must be equal to
  74:Generated_Source\PSoC4/CyFlash.c **** * the flash row size. The flash row size for the selected device is defined by
  75:Generated_Source\PSoC4/CyFlash.c **** * the \ref CY_FLASH_SIZEOF_ROW macro. Refer to the device datasheet for the
  76:Generated_Source\PSoC4/CyFlash.c **** * details.
  77:Generated_Source\PSoC4/CyFlash.c **** *
  78:Generated_Source\PSoC4/CyFlash.c **** * \return \ref group_flash_status_codes
  79:Generated_Source\PSoC4/CyFlash.c **** *
  80:Generated_Source\PSoC4/CyFlash.c **** *******************************************************************************/
  81:Generated_Source\PSoC4/CyFlash.c **** uint32 CySysFlashWriteRow(uint32 rowNum, const uint8 rowData[])
  82:Generated_Source\PSoC4/CyFlash.c **** {
 568              		.loc 1 82 0
 569              		.cfi_startproc
 570              		@ args = 0, pretend = 0, frame = 168
ARM GAS  C:\Users\prana\AppData\Local\Temp\ccNLz197.s 			page 44


 571              		@ frame_needed = 0, uses_anonymous_args = 0
 572              	.LVL0:
 573 0000 F0B5     		push	{r4, r5, r6, r7, lr}
 574              		.cfi_def_cfa_offset 20
 575              		.cfi_offset 4, -20
 576              		.cfi_offset 5, -16
 577              		.cfi_offset 6, -12
 578              		.cfi_offset 7, -8
 579              		.cfi_offset 14, -4
  83:Generated_Source\PSoC4/CyFlash.c ****     volatile uint32 retValue = CY_SYS_FLASH_SUCCESS;
 580              		.loc 1 83 0
 581 0002 0025     		movs	r5, #0
  84:Generated_Source\PSoC4/CyFlash.c ****     volatile uint32 clkCnfRetValue = CY_SYS_FLASH_SUCCESS;
  85:Generated_Source\PSoC4/CyFlash.c ****     volatile uint32 parameters[(CY_FLASH_SIZEOF_ROW + CY_FLASH_SRAM_ROM_DATA) / sizeof(uint32)];
  86:Generated_Source\PSoC4/CyFlash.c ****     uint8  interruptState;
  87:Generated_Source\PSoC4/CyFlash.c **** 
  88:Generated_Source\PSoC4/CyFlash.c ****     #if (CY_FLASH_CHECKSUM_WORKAROUND)
  89:Generated_Source\PSoC4/CyFlash.c ****         uint32 needChecksumWorkaround = 0u;
  90:Generated_Source\PSoC4/CyFlash.c ****         uint32 savedIndex = 0u;
  91:Generated_Source\PSoC4/CyFlash.c ****         uint32 savedValue = 0u;
  92:Generated_Source\PSoC4/CyFlash.c ****         uint32 checksum = 0u;
  93:Generated_Source\PSoC4/CyFlash.c ****         uint32 bits = 0u;
  94:Generated_Source\PSoC4/CyFlash.c ****         uint32 i;
  95:Generated_Source\PSoC4/CyFlash.c ****     #endif  /* (CY_FLASH_CHECKSUM_WORKAROUND) */
  96:Generated_Source\PSoC4/CyFlash.c **** 
  97:Generated_Source\PSoC4/CyFlash.c ****     if ((rowNum < CY_FLASH_NUMBER_ROWS) && (rowData != 0u))
 582              		.loc 1 97 0
 583 0004 484B     		ldr	r3, .L35
  82:Generated_Source\PSoC4/CyFlash.c ****     volatile uint32 retValue = CY_SYS_FLASH_SUCCESS;
 584              		.loc 1 82 0
 585 0006 ABB0     		sub	sp, sp, #172
 586              		.cfi_def_cfa_offset 192
  83:Generated_Source\PSoC4/CyFlash.c ****     volatile uint32 retValue = CY_SYS_FLASH_SUCCESS;
 587              		.loc 1 83 0
 588 0008 0295     		str	r5, [sp, #8]
  82:Generated_Source\PSoC4/CyFlash.c ****     volatile uint32 retValue = CY_SYS_FLASH_SUCCESS;
 589              		.loc 1 82 0
 590 000a 0190     		str	r0, [sp, #4]
  84:Generated_Source\PSoC4/CyFlash.c ****     volatile uint32 clkCnfRetValue = CY_SYS_FLASH_SUCCESS;
 591              		.loc 1 84 0
 592 000c 0395     		str	r5, [sp, #12]
 593              		.loc 1 97 0
 594 000e 9842     		cmp	r0, r3
 595 0010 00D9     		bls	.LCB21
 596 0012 83E0     		b	.L2	@long jump
 597              	.LCB21:
 598              		.loc 1 97 0 is_stmt 0 discriminator 1
 599 0014 A942     		cmp	r1, r5
 600 0016 00D1     		bne	.LCB23
 601 0018 80E0     		b	.L2	@long jump
 602              	.LCB23:
  98:Generated_Source\PSoC4/CyFlash.c ****     {
  99:Generated_Source\PSoC4/CyFlash.c ****         /* Copy data to be written into internal variable */
 100:Generated_Source\PSoC4/CyFlash.c ****         (void)memcpy((void *)&parameters[2u], rowData, CY_FLASH_SIZEOF_ROW);
 603              		.loc 1 100 0 is_stmt 1
 604 001a 8022     		movs	r2, #128
 605 001c 0AA8     		add	r0, sp, #40
ARM GAS  C:\Users\prana\AppData\Local\Temp\ccNLz197.s 			page 45


 606              	.LVL1:
 607 001e FFF7FEFF 		bl	memcpy
 608              	.LVL2:
 101:Generated_Source\PSoC4/CyFlash.c **** 
 102:Generated_Source\PSoC4/CyFlash.c ****         #if (CY_FLASH_CHECKSUM_WORKAROUND)
 103:Generated_Source\PSoC4/CyFlash.c **** 
 104:Generated_Source\PSoC4/CyFlash.c ****             for (i = 2u; i < ((CY_FLASH_SIZEOF_ROW / sizeof(uint32)) + 2u); i++)
 105:Generated_Source\PSoC4/CyFlash.c ****             {
 106:Generated_Source\PSoC4/CyFlash.c ****                 uint32 tmp = parameters[i];
 107:Generated_Source\PSoC4/CyFlash.c ****                 if (tmp != 0u)
 108:Generated_Source\PSoC4/CyFlash.c ****                 {
 109:Generated_Source\PSoC4/CyFlash.c ****                     checksum += tmp;
 110:Generated_Source\PSoC4/CyFlash.c ****                     bits |= tmp;
 111:Generated_Source\PSoC4/CyFlash.c ****                     savedIndex = i;
 112:Generated_Source\PSoC4/CyFlash.c ****                 }
 113:Generated_Source\PSoC4/CyFlash.c ****             }
 114:Generated_Source\PSoC4/CyFlash.c **** 
 115:Generated_Source\PSoC4/CyFlash.c ****             needChecksumWorkaround = ((checksum == 0u) && (bits != 0u)) ? 1u : 0u;
 116:Generated_Source\PSoC4/CyFlash.c ****             if (needChecksumWorkaround != 0u)
 117:Generated_Source\PSoC4/CyFlash.c ****             {
 118:Generated_Source\PSoC4/CyFlash.c ****                 savedValue = parameters[savedIndex];
 119:Generated_Source\PSoC4/CyFlash.c ****                 parameters[savedIndex] = 0u;
 120:Generated_Source\PSoC4/CyFlash.c ****             }
 121:Generated_Source\PSoC4/CyFlash.c ****         #endif  /* (CY_FLASH_CHECKSUM_WORKAROUND) */
 122:Generated_Source\PSoC4/CyFlash.c **** 
 123:Generated_Source\PSoC4/CyFlash.c ****         /* Load Flash Bytes */
 124:Generated_Source\PSoC4/CyFlash.c ****         parameters[0u] = (uint32) (CY_FLASH_GET_MACRO_FROM_ROW(rowNum)        << CY_FLASH_PARAM_MAC
 609              		.loc 1 124 0
 610 0022 424B     		ldr	r3, .L35+4
 100:Generated_Source\PSoC4/CyFlash.c **** 
 611              		.loc 1 100 0
 612 0024 08AF     		add	r7, sp, #32
 613              		.loc 1 124 0
 614 0026 0893     		str	r3, [sp, #32]
 125:Generated_Source\PSoC4/CyFlash.c ****                          (uint32) (CY_FLASH_PAGE_LATCH_START_ADDR             << CY_FLASH_PARAM_ADD
 126:Generated_Source\PSoC4/CyFlash.c ****                          (uint32) (CY_FLASH_KEY_TWO(CY_FLASH_API_OPCODE_LOAD) << CY_FLASH_PARAM_KEY
 127:Generated_Source\PSoC4/CyFlash.c ****                          CY_FLASH_KEY_ONE;
 128:Generated_Source\PSoC4/CyFlash.c ****         parameters[1u] = CY_FLASH_SIZEOF_ROW - 1u;
 615              		.loc 1 128 0
 616 0028 7F23     		movs	r3, #127
 129:Generated_Source\PSoC4/CyFlash.c **** 
 130:Generated_Source\PSoC4/CyFlash.c ****         CY_FLASH_CPUSS_SYSARG_REG = (uint32) &parameters[0u];
 617              		.loc 1 130 0
 618 002a 414C     		ldr	r4, .L35+8
 128:Generated_Source\PSoC4/CyFlash.c **** 
 619              		.loc 1 128 0
 620 002c 7B60     		str	r3, [r7, #4]
 131:Generated_Source\PSoC4/CyFlash.c ****         CY_FLASH_CPUSS_SYSREQ_REG = CY_FLASH_CPUSS_REQ_START | CY_FLASH_API_OPCODE_LOAD;
 621              		.loc 1 131 0
 622 002e 414E     		ldr	r6, .L35+12
 623 0030 414B     		ldr	r3, .L35+16
 130:Generated_Source\PSoC4/CyFlash.c ****         CY_FLASH_CPUSS_SYSREQ_REG = CY_FLASH_CPUSS_REQ_START | CY_FLASH_API_OPCODE_LOAD;
 624              		.loc 1 130 0
 625 0032 2760     		str	r7, [r4]
 626              	.LVL3:
 627              		.loc 1 131 0
 628 0034 3360     		str	r3, [r6]
ARM GAS  C:\Users\prana\AppData\Local\Temp\ccNLz197.s 			page 46


 132:Generated_Source\PSoC4/CyFlash.c ****         CY_NOP;
 629              		.loc 1 132 0
 630              		.syntax divided
 631              	@ 132 "Generated_Source\PSoC4\CyFlash.c" 1
 632 0036 C046     		NOP
 633              	
 634              	@ 0 "" 2
 133:Generated_Source\PSoC4/CyFlash.c ****         retValue = CY_FLASH_API_RETURN;
 635              		.loc 1 133 0
 636              		.thumb
 637              		.syntax unified
 638 0038 2368     		ldr	r3, [r4]
 639 003a 1B0F     		lsrs	r3, r3, #28
 640 003c 0F2B     		cmp	r3, #15
 641 003e 03D0     		beq	.L29
 642              		.loc 1 133 0 is_stmt 0 discriminator 2
 643 0040 2368     		ldr	r3, [r4]
 644 0042 1B0F     		lsrs	r3, r3, #28
 645 0044 0A2B     		cmp	r3, #10
 646 0046 01D0     		beq	.L4
 647              	.L29:
 648              		.loc 1 133 0 discriminator 4
 649 0048 2568     		ldr	r5, [r4]
 650 004a EDB2     		uxtb	r5, r5
 651              	.L4:
 652              		.loc 1 133 0 discriminator 8
 653 004c 0295     		str	r5, [sp, #8]
 134:Generated_Source\PSoC4/CyFlash.c **** 
 135:Generated_Source\PSoC4/CyFlash.c ****         if(retValue == CY_SYS_FLASH_SUCCESS)
 654              		.loc 1 135 0 is_stmt 1 discriminator 8
 655 004e 029D     		ldr	r5, [sp, #8]
 656 0050 002D     		cmp	r5, #0
 657 0052 65D1     		bne	.L5
 136:Generated_Source\PSoC4/CyFlash.c ****         {
 137:Generated_Source\PSoC4/CyFlash.c ****             /***************************************************************
 138:Generated_Source\PSoC4/CyFlash.c ****             * Mask all the exceptions to guarantee that Flash write will
 139:Generated_Source\PSoC4/CyFlash.c ****             * occur in the atomic way. It will not affect system call
 140:Generated_Source\PSoC4/CyFlash.c ****             * execution (flash row write) since it is executed in the NMI
 141:Generated_Source\PSoC4/CyFlash.c ****             * context.
 142:Generated_Source\PSoC4/CyFlash.c ****             ***************************************************************/
 143:Generated_Source\PSoC4/CyFlash.c ****             interruptState = CyEnterCriticalSection();
 658              		.loc 1 143 0
 659 0054 FFF7FEFF 		bl	CyEnterCriticalSection
 660              	.LVL4:
 661              	.LBB8:
 662              	.LBB9:
 144:Generated_Source\PSoC4/CyFlash.c **** 
 145:Generated_Source\PSoC4/CyFlash.c ****             clkCnfRetValue = CySysFlashClockBackup();
 146:Generated_Source\PSoC4/CyFlash.c **** 
 147:Generated_Source\PSoC4/CyFlash.c ****         #if(CY_IP_SPCIF_SYNCHRONOUS)
 148:Generated_Source\PSoC4/CyFlash.c ****             if(clkCnfRetValue == CY_SYS_FLASH_SUCCESS)
 149:Generated_Source\PSoC4/CyFlash.c ****             {
 150:Generated_Source\PSoC4/CyFlash.c ****                 retValue = CySysFlashClockConfig();
 151:Generated_Source\PSoC4/CyFlash.c ****             }
 152:Generated_Source\PSoC4/CyFlash.c ****         #endif  /* (CY_IP_SPCIF_SYNCHRONOUS) */
 153:Generated_Source\PSoC4/CyFlash.c **** 
 154:Generated_Source\PSoC4/CyFlash.c ****             if(retValue == CY_SYS_FLASH_SUCCESS)
ARM GAS  C:\Users\prana\AppData\Local\Temp\ccNLz197.s 			page 47


 155:Generated_Source\PSoC4/CyFlash.c ****             {
 156:Generated_Source\PSoC4/CyFlash.c ****                 /* Write Row */
 157:Generated_Source\PSoC4/CyFlash.c ****                 parameters[0u]  = (uint32) (((uint32) CY_FLASH_KEY_TWO(CY_FLASH_API_OPCODE_WRITE_RO
 158:Generated_Source\PSoC4/CyFlash.c ****                 parameters[0u] |= (uint32)(rowNum << 16u);
 159:Generated_Source\PSoC4/CyFlash.c **** 
 160:Generated_Source\PSoC4/CyFlash.c ****                 CY_FLASH_CPUSS_SYSARG_REG = (uint32) &parameters[0u];
 161:Generated_Source\PSoC4/CyFlash.c ****                 CY_FLASH_CPUSS_SYSREQ_REG = CY_FLASH_CPUSS_REQ_START | CY_FLASH_API_OPCODE_WRITE_RO
 162:Generated_Source\PSoC4/CyFlash.c ****                 CY_NOP;
 163:Generated_Source\PSoC4/CyFlash.c ****                 retValue = CY_FLASH_API_RETURN;
 164:Generated_Source\PSoC4/CyFlash.c ****             }
 165:Generated_Source\PSoC4/CyFlash.c **** 
 166:Generated_Source\PSoC4/CyFlash.c ****             #if (CY_FLASH_CHECKSUM_WORKAROUND)
 167:Generated_Source\PSoC4/CyFlash.c **** 
 168:Generated_Source\PSoC4/CyFlash.c ****                 if ((retValue == CYRET_SUCCESS) && (needChecksumWorkaround != 0u))
 169:Generated_Source\PSoC4/CyFlash.c ****                 {
 170:Generated_Source\PSoC4/CyFlash.c ****                     (void)memset((void *)&parameters[2u], 0, CY_FLASH_SIZEOF_ROW);
 171:Generated_Source\PSoC4/CyFlash.c ****                     parameters[savedIndex] = savedValue;
 172:Generated_Source\PSoC4/CyFlash.c **** 
 173:Generated_Source\PSoC4/CyFlash.c ****                     /* Load Flash Bytes */
 174:Generated_Source\PSoC4/CyFlash.c ****                     parameters[0u] = (uint32) (CY_FLASH_GET_MACRO_FROM_ROW(rowNum)        << CY_FLA
 175:Generated_Source\PSoC4/CyFlash.c ****                                      (uint32) (CY_FLASH_PAGE_LATCH_START_ADDR             << CY_FLA
 176:Generated_Source\PSoC4/CyFlash.c ****                                      (uint32) (CY_FLASH_KEY_TWO(CY_FLASH_API_OPCODE_LOAD) << CY_FLA
 177:Generated_Source\PSoC4/CyFlash.c ****                                      CY_FLASH_KEY_ONE;
 178:Generated_Source\PSoC4/CyFlash.c ****                     parameters[1u] = CY_FLASH_SIZEOF_ROW - 1u;
 179:Generated_Source\PSoC4/CyFlash.c **** 
 180:Generated_Source\PSoC4/CyFlash.c ****                     CY_FLASH_CPUSS_SYSARG_REG = (uint32) &parameters[0u];
 181:Generated_Source\PSoC4/CyFlash.c ****                     CY_FLASH_CPUSS_SYSREQ_REG = CY_FLASH_CPUSS_REQ_START | CY_FLASH_API_OPCODE_LOAD
 182:Generated_Source\PSoC4/CyFlash.c ****                     CY_NOP;
 183:Generated_Source\PSoC4/CyFlash.c ****                     retValue = CY_FLASH_API_RETURN;
 184:Generated_Source\PSoC4/CyFlash.c **** 
 185:Generated_Source\PSoC4/CyFlash.c **** 
 186:Generated_Source\PSoC4/CyFlash.c ****                     if(retValue == CY_SYS_FLASH_SUCCESS)
 187:Generated_Source\PSoC4/CyFlash.c ****                     {
 188:Generated_Source\PSoC4/CyFlash.c ****                         /* Program Row */
 189:Generated_Source\PSoC4/CyFlash.c ****                         parameters[0u]  =
 190:Generated_Source\PSoC4/CyFlash.c ****                             (uint32) (((uint32) CY_FLASH_KEY_TWO(CY_FLASH_API_OPCODE_PROGRAM_ROW) <
 191:Generated_Source\PSoC4/CyFlash.c ****                                                     CY_FLASH_PARAM_KEY_TWO_OFFSET) | CY_FLASH_KEY_O
 192:Generated_Source\PSoC4/CyFlash.c ****                         parameters[0u] |= (uint32)(rowNum << 16u);
 193:Generated_Source\PSoC4/CyFlash.c **** 
 194:Generated_Source\PSoC4/CyFlash.c ****                         CY_FLASH_CPUSS_SYSARG_REG = (uint32) &parameters[0u];
 195:Generated_Source\PSoC4/CyFlash.c ****                         CY_FLASH_CPUSS_SYSREQ_REG = CY_FLASH_CPUSS_REQ_START | CY_FLASH_API_OPCODE_
 196:Generated_Source\PSoC4/CyFlash.c ****                         CY_NOP;
 197:Generated_Source\PSoC4/CyFlash.c ****                         retValue = CY_FLASH_API_RETURN;
 198:Generated_Source\PSoC4/CyFlash.c ****                     }
 199:Generated_Source\PSoC4/CyFlash.c ****                 }
 200:Generated_Source\PSoC4/CyFlash.c ****             #endif  /* (CY_FLASH_CHECKSUM_WORKAROUND) */
 201:Generated_Source\PSoC4/CyFlash.c **** 
 202:Generated_Source\PSoC4/CyFlash.c ****             if(clkCnfRetValue == CY_SYS_FLASH_SUCCESS)
 203:Generated_Source\PSoC4/CyFlash.c ****             {
 204:Generated_Source\PSoC4/CyFlash.c ****                 clkCnfRetValue = CySysFlashClockRestore();
 205:Generated_Source\PSoC4/CyFlash.c **** 
 206:Generated_Source\PSoC4/CyFlash.c ****                 if(clkCnfRetValue != CY_SYS_FLASH_SUCCESS)
 207:Generated_Source\PSoC4/CyFlash.c ****                 {
 208:Generated_Source\PSoC4/CyFlash.c ****                     retValue = clkCnfRetValue;
 209:Generated_Source\PSoC4/CyFlash.c ****                 }
 210:Generated_Source\PSoC4/CyFlash.c ****             }
 211:Generated_Source\PSoC4/CyFlash.c **** 
ARM GAS  C:\Users\prana\AppData\Local\Temp\ccNLz197.s 			page 48


 212:Generated_Source\PSoC4/CyFlash.c ****             CyExitCriticalSection(interruptState);
 213:Generated_Source\PSoC4/CyFlash.c ****         }
 214:Generated_Source\PSoC4/CyFlash.c ****     }
 215:Generated_Source\PSoC4/CyFlash.c ****     else
 216:Generated_Source\PSoC4/CyFlash.c ****     {
 217:Generated_Source\PSoC4/CyFlash.c ****         retValue = CY_SYS_FLASH_INVALID_ADDR;
 218:Generated_Source\PSoC4/CyFlash.c ****     }
 219:Generated_Source\PSoC4/CyFlash.c **** 
 220:Generated_Source\PSoC4/CyFlash.c ****     return (retValue);
 221:Generated_Source\PSoC4/CyFlash.c **** }
 222:Generated_Source\PSoC4/CyFlash.c **** 
 223:Generated_Source\PSoC4/CyFlash.c **** 
 224:Generated_Source\PSoC4/CyFlash.c **** 
 225:Generated_Source\PSoC4/CyFlash.c **** #if (CY_IP_FLASH_PARALLEL_PGM_EN && (CY_IP_FLASH_MACROS > 1u))
 226:Generated_Source\PSoC4/CyFlash.c **** /*******************************************************************************
 227:Generated_Source\PSoC4/CyFlash.c **** * Function Name: CySysFlashStartWriteRow
 228:Generated_Source\PSoC4/CyFlash.c **** ****************************************************************************//**
 229:Generated_Source\PSoC4/CyFlash.c **** *
 230:Generated_Source\PSoC4/CyFlash.c **** * Initiates a write to a row of Flash. A call to this API is non-blocking. 
 231:Generated_Source\PSoC4/CyFlash.c **** * Use CySysFlashResumeWriteRow() to resume flash writes and 
 232:Generated_Source\PSoC4/CyFlash.c **** * CySysFlashGetWriteRowStatus() to ascertain status of the write operation.
 233:Generated_Source\PSoC4/CyFlash.c **** *
 234:Generated_Source\PSoC4/CyFlash.c **** * The devices require HFCLK to be sourced by 48 MHz IMO during flash write.
 235:Generated_Source\PSoC4/CyFlash.c **** * This API will modify IMO configuration; it can be later restored to original
 236:Generated_Source\PSoC4/CyFlash.c **** * configuration by calling \ref CySysFlashGetWriteRowStatus().
 237:Generated_Source\PSoC4/CyFlash.c **** *
 238:Generated_Source\PSoC4/CyFlash.c **** * \note The non-blocking operation does not return success status 
 239:Generated_Source\PSoC4/CyFlash.c **** * CY_SYS_FLASH_SUCCESS until the last \ref CySysFlashResumeWriteRow API 
 240:Generated_Source\PSoC4/CyFlash.c **** * is complete. The CPUSS_SYSARG register will be reflecting the SRAM address 
 241:Generated_Source\PSoC4/CyFlash.c **** * during an ongoing non-blocking operation.
 242:Generated_Source\PSoC4/CyFlash.c **** *    
 243:Generated_Source\PSoC4/CyFlash.c **** * \param rowNum The flash row number. The number of the flash rows is defined by
 244:Generated_Source\PSoC4/CyFlash.c **** * the \ref CY_FLASH_NUMBER_ROWS macro for the selected device. Refer to the
 245:Generated_Source\PSoC4/CyFlash.c **** * device datasheet for the details.
 246:Generated_Source\PSoC4/CyFlash.c **** * \note The target flash array is calculated based on the specified flash row.
 247:Generated_Source\PSoC4/CyFlash.c **** *
 248:Generated_Source\PSoC4/CyFlash.c **** * \param rowData Array of bytes to write. The size of the array must be equal to
 249:Generated_Source\PSoC4/CyFlash.c **** * the flash row size. The flash row size for the selected device is defined by
 250:Generated_Source\PSoC4/CyFlash.c **** * the \ref CY_FLASH_SIZEOF_ROW macro. Refer to the device datasheet for the
 251:Generated_Source\PSoC4/CyFlash.c **** * details.
 252:Generated_Source\PSoC4/CyFlash.c **** *
 253:Generated_Source\PSoC4/CyFlash.c **** * \return \ref group_flash_status_codes
 254:Generated_Source\PSoC4/CyFlash.c **** *
 255:Generated_Source\PSoC4/CyFlash.c **** *******************************************************************************/
 256:Generated_Source\PSoC4/CyFlash.c **** uint32 CySysFlashStartWriteRow(uint32 rowNum, const uint8 rowData[])
 257:Generated_Source\PSoC4/CyFlash.c **** {
 258:Generated_Source\PSoC4/CyFlash.c ****     volatile uint32 retValue = CY_SYS_FLASH_SUCCESS;
 259:Generated_Source\PSoC4/CyFlash.c ****     volatile uint32 parameters[(CY_FLASH_SIZEOF_ROW + CY_FLASH_SRAM_ROM_DATA) / sizeof(uint32)];
 260:Generated_Source\PSoC4/CyFlash.c ****     uint8  interruptState;
 261:Generated_Source\PSoC4/CyFlash.c **** 
 262:Generated_Source\PSoC4/CyFlash.c **** #if(CY_IP_SPCIF_SYNCHRONOUS)
 263:Generated_Source\PSoC4/CyFlash.c ****     volatile uint32 clkCnfRetValue = CY_SYS_FLASH_SUCCESS;
 264:Generated_Source\PSoC4/CyFlash.c **** #endif  /* (CY_IP_SPCIF_SYNCHRONOUS) */    
 265:Generated_Source\PSoC4/CyFlash.c **** 
 266:Generated_Source\PSoC4/CyFlash.c ****     if ((rowNum < CY_FLASH_NUMBER_ROWS) && (rowData != 0u))
 267:Generated_Source\PSoC4/CyFlash.c ****     {
 268:Generated_Source\PSoC4/CyFlash.c ****         /* Copy data to be written into internal variable */
ARM GAS  C:\Users\prana\AppData\Local\Temp\ccNLz197.s 			page 49


 269:Generated_Source\PSoC4/CyFlash.c ****         (void)memcpy((void *)&parameters[2u], rowData, CY_FLASH_SIZEOF_ROW);
 270:Generated_Source\PSoC4/CyFlash.c **** 
 271:Generated_Source\PSoC4/CyFlash.c ****         /* Load Flash Bytes */
 272:Generated_Source\PSoC4/CyFlash.c ****         parameters[0u] = (uint32) (CY_FLASH_GET_MACRO_FROM_ROW(rowNum)        << CY_FLASH_PARAM_MAC
 273:Generated_Source\PSoC4/CyFlash.c ****                          (uint32) (CY_FLASH_PAGE_LATCH_START_ADDR             << CY_FLASH_PARAM_ADD
 274:Generated_Source\PSoC4/CyFlash.c ****                          (uint32) (CY_FLASH_KEY_TWO(CY_FLASH_API_OPCODE_LOAD) << CY_FLASH_PARAM_KEY
 275:Generated_Source\PSoC4/CyFlash.c ****                          CY_FLASH_KEY_ONE;
 276:Generated_Source\PSoC4/CyFlash.c ****         parameters[1u] = CY_FLASH_SIZEOF_ROW - 1u;
 277:Generated_Source\PSoC4/CyFlash.c **** 
 278:Generated_Source\PSoC4/CyFlash.c ****         CY_FLASH_CPUSS_SYSARG_REG = (uint32) &parameters[0u];
 279:Generated_Source\PSoC4/CyFlash.c ****         CY_FLASH_CPUSS_SYSREQ_REG = CY_FLASH_CPUSS_REQ_START | CY_FLASH_API_OPCODE_LOAD;
 280:Generated_Source\PSoC4/CyFlash.c ****         CY_NOP;
 281:Generated_Source\PSoC4/CyFlash.c ****         retValue = CY_FLASH_API_RETURN;
 282:Generated_Source\PSoC4/CyFlash.c **** 
 283:Generated_Source\PSoC4/CyFlash.c ****         if(retValue == CY_SYS_FLASH_SUCCESS)
 284:Generated_Source\PSoC4/CyFlash.c ****         {
 285:Generated_Source\PSoC4/CyFlash.c ****             /***************************************************************
 286:Generated_Source\PSoC4/CyFlash.c ****             * Mask all the exceptions to guarantee that Flash write will
 287:Generated_Source\PSoC4/CyFlash.c ****             * occur in the atomic way. It will not affect system call
 288:Generated_Source\PSoC4/CyFlash.c ****             * execution (flash row write) since it is executed in the NMI
 289:Generated_Source\PSoC4/CyFlash.c ****             * context.
 290:Generated_Source\PSoC4/CyFlash.c ****             ***************************************************************/
 291:Generated_Source\PSoC4/CyFlash.c ****             interruptState = CyEnterCriticalSection();
 292:Generated_Source\PSoC4/CyFlash.c **** 
 293:Generated_Source\PSoC4/CyFlash.c ****         #if(CY_IP_SPCIF_SYNCHRONOUS)
 294:Generated_Source\PSoC4/CyFlash.c ****             clkCnfRetValue = CySysFlashClockBackup();
 295:Generated_Source\PSoC4/CyFlash.c ****             
 296:Generated_Source\PSoC4/CyFlash.c ****             if(clkCnfRetValue == CY_SYS_FLASH_SUCCESS)
 297:Generated_Source\PSoC4/CyFlash.c ****             {
 298:Generated_Source\PSoC4/CyFlash.c ****                 retValue = CySysFlashClockConfig();
 299:Generated_Source\PSoC4/CyFlash.c ****             }
 300:Generated_Source\PSoC4/CyFlash.c ****         #else
 301:Generated_Source\PSoC4/CyFlash.c ****             (void)CySysFlashClockBackup();
 302:Generated_Source\PSoC4/CyFlash.c ****         #endif  /* (CY_IP_SPCIF_SYNCHRONOUS) */
 303:Generated_Source\PSoC4/CyFlash.c **** 
 304:Generated_Source\PSoC4/CyFlash.c ****             if(retValue == CY_SYS_FLASH_SUCCESS)
 305:Generated_Source\PSoC4/CyFlash.c ****             {
 306:Generated_Source\PSoC4/CyFlash.c ****                 /* Non-blocking Write Row */
 307:Generated_Source\PSoC4/CyFlash.c ****                 parameters[0u]  = (uint32) (((uint32) CY_FLASH_KEY_TWO(CY_FLASH_API_OPCODE_NON_BLOC
 308:Generated_Source\PSoC4/CyFlash.c ****                                                         CY_FLASH_PARAM_KEY_TWO_OFFSET) | CY_FLASH_K
 309:Generated_Source\PSoC4/CyFlash.c ****                 parameters[0u] |= (uint32)(rowNum << 16u);
 310:Generated_Source\PSoC4/CyFlash.c **** 
 311:Generated_Source\PSoC4/CyFlash.c ****                 CY_FLASH_CPUSS_SYSARG_REG = (uint32) &parameters[0u];
 312:Generated_Source\PSoC4/CyFlash.c ****                 CY_FLASH_CPUSS_SYSREQ_REG = CY_FLASH_CPUSS_REQ_START | CY_FLASH_API_OPCODE_NON_BLOC
 313:Generated_Source\PSoC4/CyFlash.c ****                 CY_NOP;
 314:Generated_Source\PSoC4/CyFlash.c ****                 retValue = CY_FLASH_API_RETURN;
 315:Generated_Source\PSoC4/CyFlash.c ****             }
 316:Generated_Source\PSoC4/CyFlash.c **** 
 317:Generated_Source\PSoC4/CyFlash.c ****             CyExitCriticalSection(interruptState);
 318:Generated_Source\PSoC4/CyFlash.c ****         }
 319:Generated_Source\PSoC4/CyFlash.c ****     }
 320:Generated_Source\PSoC4/CyFlash.c ****     else
 321:Generated_Source\PSoC4/CyFlash.c ****     {
 322:Generated_Source\PSoC4/CyFlash.c ****         retValue = CY_SYS_FLASH_INVALID_ADDR;
 323:Generated_Source\PSoC4/CyFlash.c ****     }
 324:Generated_Source\PSoC4/CyFlash.c **** 
 325:Generated_Source\PSoC4/CyFlash.c ****     return (retValue);
ARM GAS  C:\Users\prana\AppData\Local\Temp\ccNLz197.s 			page 50


 326:Generated_Source\PSoC4/CyFlash.c **** }
 327:Generated_Source\PSoC4/CyFlash.c **** 
 328:Generated_Source\PSoC4/CyFlash.c **** 
 329:Generated_Source\PSoC4/CyFlash.c **** /*******************************************************************************
 330:Generated_Source\PSoC4/CyFlash.c **** * Function Name: CySysFlashGetWriteRowStatus
 331:Generated_Source\PSoC4/CyFlash.c **** ****************************************************************************//**
 332:Generated_Source\PSoC4/CyFlash.c **** *
 333:Generated_Source\PSoC4/CyFlash.c **** * Returns the current status of the flash write operation.
 334:Generated_Source\PSoC4/CyFlash.c **** *
 335:Generated_Source\PSoC4/CyFlash.c **** ** \note The non-blocking operation does not return success status 
 336:Generated_Source\PSoC4/CyFlash.c **** * CY_SYS_FLASH_SUCCESS until the last \ref CySysFlashResumeWriteRow API 
 337:Generated_Source\PSoC4/CyFlash.c **** * is complete. The CPUSS_SYSARG register will be reflecting the SRAM address 
 338:Generated_Source\PSoC4/CyFlash.c **** * during an ongoing non-blocking operation.
 339:Generated_Source\PSoC4/CyFlash.c **** * Calling this API before starting a non-blocking write row operation 
 340:Generated_Source\PSoC4/CyFlash.c **** * using the \ref CySysFlashStartWriteRow() API will cause improper operation.
 341:Generated_Source\PSoC4/CyFlash.c **** *
 342:Generated_Source\PSoC4/CyFlash.c **** * \return \ref group_flash_status_codes
 343:Generated_Source\PSoC4/CyFlash.c **** *
 344:Generated_Source\PSoC4/CyFlash.c **** *******************************************************************************/
 345:Generated_Source\PSoC4/CyFlash.c **** uint32 CySysFlashGetWriteRowStatus(void)
 346:Generated_Source\PSoC4/CyFlash.c **** {
 347:Generated_Source\PSoC4/CyFlash.c ****     volatile uint32 retValue = CY_SYS_FLASH_SUCCESS;
 348:Generated_Source\PSoC4/CyFlash.c **** 
 349:Generated_Source\PSoC4/CyFlash.c ****     CY_NOP;
 350:Generated_Source\PSoC4/CyFlash.c ****     retValue = CY_FLASH_API_RETURN;
 351:Generated_Source\PSoC4/CyFlash.c **** 
 352:Generated_Source\PSoC4/CyFlash.c ****     (void) CySysFlashClockRestore();
 353:Generated_Source\PSoC4/CyFlash.c **** 
 354:Generated_Source\PSoC4/CyFlash.c ****     return (retValue);
 355:Generated_Source\PSoC4/CyFlash.c **** }
 356:Generated_Source\PSoC4/CyFlash.c **** 
 357:Generated_Source\PSoC4/CyFlash.c **** 
 358:Generated_Source\PSoC4/CyFlash.c **** /*******************************************************************************
 359:Generated_Source\PSoC4/CyFlash.c **** * Function Name: CySysFlashResumeWriteRow
 360:Generated_Source\PSoC4/CyFlash.c **** ****************************************************************************//**
 361:Generated_Source\PSoC4/CyFlash.c **** *
 362:Generated_Source\PSoC4/CyFlash.c **** * This API must be called, once the SPC interrupt is triggered to complete the
 363:Generated_Source\PSoC4/CyFlash.c **** * non-blocking operation. It is advised not to prolong calling this API for
 364:Generated_Source\PSoC4/CyFlash.c **** * more than 25 ms.
 365:Generated_Source\PSoC4/CyFlash.c **** *
 366:Generated_Source\PSoC4/CyFlash.c **** * The non-blocking write row API \ref CySysFlashStartWriteRow() requires that
 367:Generated_Source\PSoC4/CyFlash.c **** * this API be called 3 times to complete the write. This can be done by
 368:Generated_Source\PSoC4/CyFlash.c **** * configuring SPCIF interrupt and placing a call to this API.
 369:Generated_Source\PSoC4/CyFlash.c **** *
 370:Generated_Source\PSoC4/CyFlash.c **** * For CM0 based device, a non-blocking call to program a row of macro 0
 371:Generated_Source\PSoC4/CyFlash.c **** * requires the user to set the CPUSS_CONFIG.VECS_IN_RAM bit so that the
 372:Generated_Source\PSoC4/CyFlash.c **** * interrupt vector for the SPC is fetched from the SRAM rather than the FLASH.
 373:Generated_Source\PSoC4/CyFlash.c **** *
 374:Generated_Source\PSoC4/CyFlash.c **** * For CM0+ based device, if the user wants to keep the vector table in flash
 375:Generated_Source\PSoC4/CyFlash.c **** * when performing non-blocking flash write then they need to make sure the
 376:Generated_Source\PSoC4/CyFlash.c **** * vector table is placed in the flash macro which is not getting programmed by
 377:Generated_Source\PSoC4/CyFlash.c **** * configuring the VTOR register.
 378:Generated_Source\PSoC4/CyFlash.c **** *
 379:Generated_Source\PSoC4/CyFlash.c **** * \note The non-blocking operation does not return success status 
 380:Generated_Source\PSoC4/CyFlash.c **** * CY_SYS_FLASH_SUCCESS until the last Resume API is complete. 
 381:Generated_Source\PSoC4/CyFlash.c **** * The CPUSS_SYSARG register will be reflecting the SRAM address during an 
 382:Generated_Source\PSoC4/CyFlash.c **** * ongoing non-blocking operation.
ARM GAS  C:\Users\prana\AppData\Local\Temp\ccNLz197.s 			page 51


 383:Generated_Source\PSoC4/CyFlash.c **** *
 384:Generated_Source\PSoC4/CyFlash.c **** * \return \ref group_flash_status_codes
 385:Generated_Source\PSoC4/CyFlash.c **** *
 386:Generated_Source\PSoC4/CyFlash.c **** *******************************************************************************/
 387:Generated_Source\PSoC4/CyFlash.c **** uint32 CySysFlashResumeWriteRow(void)
 388:Generated_Source\PSoC4/CyFlash.c **** {
 389:Generated_Source\PSoC4/CyFlash.c ****     volatile uint32 retValue = CY_SYS_FLASH_SUCCESS;
 390:Generated_Source\PSoC4/CyFlash.c ****     static volatile uint32 parameters[1u];
 391:Generated_Source\PSoC4/CyFlash.c **** 
 392:Generated_Source\PSoC4/CyFlash.c ****     /* Resume */
 393:Generated_Source\PSoC4/CyFlash.c ****     parameters[0u] = (uint32) (((uint32) CY_FLASH_KEY_TWO(CY_FLASH_API_OPCODE_RESUME_NON_BLOCKING) 
 394:Generated_Source\PSoC4/CyFlash.c ****                                          CY_FLASH_PARAM_KEY_TWO_OFFSET) | CY_FLASH_KEY_ONE);
 395:Generated_Source\PSoC4/CyFlash.c ****     CY_FLASH_CPUSS_SYSARG_REG = (uint32) &parameters[0u];
 396:Generated_Source\PSoC4/CyFlash.c ****     CY_FLASH_CPUSS_SYSREQ_REG = CY_FLASH_CPUSS_REQ_START | CY_FLASH_API_OPCODE_RESUME_NON_BLOCKING;
 397:Generated_Source\PSoC4/CyFlash.c ****     
 398:Generated_Source\PSoC4/CyFlash.c ****     CY_NOP;
 399:Generated_Source\PSoC4/CyFlash.c ****     retValue = CY_FLASH_API_RETURN;
 400:Generated_Source\PSoC4/CyFlash.c ****     
 401:Generated_Source\PSoC4/CyFlash.c ****     return (retValue);
 402:Generated_Source\PSoC4/CyFlash.c **** }
 403:Generated_Source\PSoC4/CyFlash.c **** 
 404:Generated_Source\PSoC4/CyFlash.c **** #endif /* (CY_IP_FLASH_PARALLEL_PGM_EN && (CY_IP_FLASH_MACROS > 1u)) */
 405:Generated_Source\PSoC4/CyFlash.c **** 
 406:Generated_Source\PSoC4/CyFlash.c **** 
 407:Generated_Source\PSoC4/CyFlash.c **** /*******************************************************************************
 408:Generated_Source\PSoC4/CyFlash.c **** * Function Name: CySysFlashSetWaitCycles
 409:Generated_Source\PSoC4/CyFlash.c **** ****************************************************************************//**
 410:Generated_Source\PSoC4/CyFlash.c **** *
 411:Generated_Source\PSoC4/CyFlash.c **** * Sets the number of clock cycles the cache will wait before it samples data
 412:Generated_Source\PSoC4/CyFlash.c **** * coming back from Flash. This function must be called before increasing the
 413:Generated_Source\PSoC4/CyFlash.c **** * SYSCLK clock frequency. It can optionally be called after lowering SYSCLK
 414:Generated_Source\PSoC4/CyFlash.c **** * clock frequency in order to improve the CPU performance.
 415:Generated_Source\PSoC4/CyFlash.c **** *
 416:Generated_Source\PSoC4/CyFlash.c **** * \param freq The System clock frequency in MHz.
 417:Generated_Source\PSoC4/CyFlash.c **** *
 418:Generated_Source\PSoC4/CyFlash.c **** * \note Invalid frequency will be ignored in Release mode and the CPU will be
 419:Generated_Source\PSoC4/CyFlash.c **** * halted if project is compiled in Debug mode.
 420:Generated_Source\PSoC4/CyFlash.c **** *
 421:Generated_Source\PSoC4/CyFlash.c **** *******************************************************************************/
 422:Generated_Source\PSoC4/CyFlash.c **** void CySysFlashSetWaitCycles(uint32 freq)
 423:Generated_Source\PSoC4/CyFlash.c **** {
 424:Generated_Source\PSoC4/CyFlash.c ****     uint8  interruptState;
 425:Generated_Source\PSoC4/CyFlash.c **** 
 426:Generated_Source\PSoC4/CyFlash.c ****     interruptState = CyEnterCriticalSection();
 427:Generated_Source\PSoC4/CyFlash.c **** 
 428:Generated_Source\PSoC4/CyFlash.c ****     #if (CY_IP_CPUSS)
 429:Generated_Source\PSoC4/CyFlash.c **** 
 430:Generated_Source\PSoC4/CyFlash.c ****         if ( freq <= CY_FLASH_SYSCLK_BOUNDARY_MHZ )
 431:Generated_Source\PSoC4/CyFlash.c ****         {
 432:Generated_Source\PSoC4/CyFlash.c ****             CY_SYS_CLK_SELECT_REG &= (uint32)(~CY_FLASH_WAIT_STATE_EN);
 433:Generated_Source\PSoC4/CyFlash.c ****         }
 434:Generated_Source\PSoC4/CyFlash.c ****         else
 435:Generated_Source\PSoC4/CyFlash.c ****         {
 436:Generated_Source\PSoC4/CyFlash.c ****             CY_SYS_CLK_SELECT_REG |= CY_FLASH_WAIT_STATE_EN;
 437:Generated_Source\PSoC4/CyFlash.c ****         }
 438:Generated_Source\PSoC4/CyFlash.c ****     #else
 439:Generated_Source\PSoC4/CyFlash.c ****         #if (CY_IP_CPUSS_FLASHC_PRESENT)
ARM GAS  C:\Users\prana\AppData\Local\Temp\ccNLz197.s 			page 52


 440:Generated_Source\PSoC4/CyFlash.c ****             /* CY_IP_FM and CY_IP_FS */
 441:Generated_Source\PSoC4/CyFlash.c ****             if (freq <= CY_FLASH_CTL_WS_0_FREQ_MAX)
 442:Generated_Source\PSoC4/CyFlash.c ****             {
 443:Generated_Source\PSoC4/CyFlash.c ****                 CY_FLASH_CTL_REG = (CY_FLASH_CTL_REG & ~CY_FLASH_CTL_WS_MASK) | CY_FLASH_CTL_WS_0_V
 444:Generated_Source\PSoC4/CyFlash.c ****             } else
 445:Generated_Source\PSoC4/CyFlash.c ****             if (freq <= CY_FLASH_CTL_WS_1_FREQ_MAX)
 446:Generated_Source\PSoC4/CyFlash.c ****             {
 447:Generated_Source\PSoC4/CyFlash.c ****                 CY_FLASH_CTL_REG = (CY_FLASH_CTL_REG & ~CY_FLASH_CTL_WS_MASK) | CY_FLASH_CTL_WS_1_V
 448:Generated_Source\PSoC4/CyFlash.c ****             } else
 449:Generated_Source\PSoC4/CyFlash.c ****             #if (CY_IP_FMLT || CY_IP_FSLT)
 450:Generated_Source\PSoC4/CyFlash.c ****                 if (freq <= CY_FLASH_CTL_WS_2_FREQ_MAX)
 451:Generated_Source\PSoC4/CyFlash.c ****                 {
 452:Generated_Source\PSoC4/CyFlash.c ****                     CY_FLASH_CTL_REG = (CY_FLASH_CTL_REG & ~CY_FLASH_CTL_WS_MASK) | CY_FLASH_CTL_WS
 453:Generated_Source\PSoC4/CyFlash.c ****                 }
 454:Generated_Source\PSoC4/CyFlash.c ****                 else
 455:Generated_Source\PSoC4/CyFlash.c ****             #endif  /* (CY_IP_FMLT || CY_IP_FSLT) */
 456:Generated_Source\PSoC4/CyFlash.c ****         #endif /* (CY_IP_CPUSS_FLASHC_PRESENT) */
 457:Generated_Source\PSoC4/CyFlash.c ****         {
 458:Generated_Source\PSoC4/CyFlash.c ****             /* Halt CPU in debug mode if frequency is invalid */
 459:Generated_Source\PSoC4/CyFlash.c ****             CYASSERT(0u != 0u);
 460:Generated_Source\PSoC4/CyFlash.c ****         }
 461:Generated_Source\PSoC4/CyFlash.c **** 
 462:Generated_Source\PSoC4/CyFlash.c ****     #endif  /* (CY_IP_CPUSS) */
 463:Generated_Source\PSoC4/CyFlash.c **** 
 464:Generated_Source\PSoC4/CyFlash.c ****     CyExitCriticalSection(interruptState);
 465:Generated_Source\PSoC4/CyFlash.c **** }
 466:Generated_Source\PSoC4/CyFlash.c **** 
 467:Generated_Source\PSoC4/CyFlash.c **** 
 468:Generated_Source\PSoC4/CyFlash.c **** #if (CY_SFLASH_XTRA_ROWS)
 469:Generated_Source\PSoC4/CyFlash.c **** /*******************************************************************************
 470:Generated_Source\PSoC4/CyFlash.c **** * Function Name: CySysSFlashWriteUserRow
 471:Generated_Source\PSoC4/CyFlash.c **** ****************************************************************************//**
 472:Generated_Source\PSoC4/CyFlash.c **** *
 473:Generated_Source\PSoC4/CyFlash.c **** * Writes data to a row of SFlash user configurable area.
 474:Generated_Source\PSoC4/CyFlash.c **** *
 475:Generated_Source\PSoC4/CyFlash.c **** * This API is applicable for PSoC 4100 BLE, PSoC 4200 BLE, PSoC 4100M,
 476:Generated_Source\PSoC4/CyFlash.c **** * PSoC 4200M, and PSoC 4200L family of devices.
 477:Generated_Source\PSoC4/CyFlash.c **** *
 478:Generated_Source\PSoC4/CyFlash.c **** * \param rowNum The flash row number. The flash row number. The number of the
 479:Generated_Source\PSoC4/CyFlash.c **** * flash rows is defined by the CY_SFLASH_NUMBER_USERROWS macro for the selected
 480:Generated_Source\PSoC4/CyFlash.c **** * device. Valid range is 0-3. Refer to the device TRM for details.
 481:Generated_Source\PSoC4/CyFlash.c **** *
 482:Generated_Source\PSoC4/CyFlash.c **** * \param rowData Array of bytes to write. The size of the array must be equal to
 483:Generated_Source\PSoC4/CyFlash.c **** * the flash row size. The flash row size for the selected device is defined by
 484:Generated_Source\PSoC4/CyFlash.c **** * the \ref CY_SFLASH_SIZEOF_USERROW macro. Refer to the device TRM for the
 485:Generated_Source\PSoC4/CyFlash.c **** * details.
 486:Generated_Source\PSoC4/CyFlash.c **** *
 487:Generated_Source\PSoC4/CyFlash.c **** * \return \ref group_flash_status_codes
 488:Generated_Source\PSoC4/CyFlash.c **** *
 489:Generated_Source\PSoC4/CyFlash.c **** *******************************************************************************/
 490:Generated_Source\PSoC4/CyFlash.c **** uint32 CySysSFlashWriteUserRow(uint32 rowNum, const uint8 rowData[])
 491:Generated_Source\PSoC4/CyFlash.c **** {
 492:Generated_Source\PSoC4/CyFlash.c ****     volatile uint32 retValue = CY_SYS_FLASH_SUCCESS;
 493:Generated_Source\PSoC4/CyFlash.c ****     volatile uint32 clkCnfRetValue = CY_SYS_FLASH_SUCCESS;
 494:Generated_Source\PSoC4/CyFlash.c ****     volatile uint32 parameters[(CY_FLASH_SIZEOF_ROW + CY_FLASH_SRAM_ROM_DATA)/4u];
 495:Generated_Source\PSoC4/CyFlash.c ****     uint8  interruptState;
 496:Generated_Source\PSoC4/CyFlash.c **** 
ARM GAS  C:\Users\prana\AppData\Local\Temp\ccNLz197.s 			page 53


 497:Generated_Source\PSoC4/CyFlash.c **** 
 498:Generated_Source\PSoC4/CyFlash.c ****     if ((rowNum < CY_SFLASH_NUMBER_USERROWS) && (rowData != 0u))
 499:Generated_Source\PSoC4/CyFlash.c ****     {
 500:Generated_Source\PSoC4/CyFlash.c ****         /* Load Flash Bytes */
 501:Generated_Source\PSoC4/CyFlash.c ****         parameters[0u] = (uint32) (CY_FLASH_GET_MACRO_FROM_ROW(rowNum)        << CY_FLASH_PARAM_MAC
 502:Generated_Source\PSoC4/CyFlash.c ****                          (uint32) (CY_FLASH_PAGE_LATCH_START_ADDR             << CY_FLASH_PARAM_ADD
 503:Generated_Source\PSoC4/CyFlash.c ****                          (uint32) (CY_FLASH_KEY_TWO(CY_FLASH_API_OPCODE_LOAD) << CY_FLASH_PARAM_KEY
 504:Generated_Source\PSoC4/CyFlash.c ****                          CY_FLASH_KEY_ONE;
 505:Generated_Source\PSoC4/CyFlash.c ****         parameters[1u] = CY_FLASH_SIZEOF_ROW - 1u;
 506:Generated_Source\PSoC4/CyFlash.c **** 
 507:Generated_Source\PSoC4/CyFlash.c ****         (void)memcpy((void *)&parameters[2u], rowData, CY_FLASH_SIZEOF_ROW);
 508:Generated_Source\PSoC4/CyFlash.c ****         CY_FLASH_CPUSS_SYSARG_REG = (uint32) &parameters[0u];
 509:Generated_Source\PSoC4/CyFlash.c ****         CY_FLASH_CPUSS_SYSREQ_REG = CY_FLASH_CPUSS_REQ_START | CY_FLASH_API_OPCODE_LOAD;
 510:Generated_Source\PSoC4/CyFlash.c ****         CY_NOP;
 511:Generated_Source\PSoC4/CyFlash.c ****         retValue = CY_FLASH_API_RETURN;
 512:Generated_Source\PSoC4/CyFlash.c **** 
 513:Generated_Source\PSoC4/CyFlash.c ****         if(retValue == CY_SYS_FLASH_SUCCESS)
 514:Generated_Source\PSoC4/CyFlash.c ****         {
 515:Generated_Source\PSoC4/CyFlash.c ****             /***************************************************************
 516:Generated_Source\PSoC4/CyFlash.c ****             * Mask all the exceptions to guarantee that Flash write will
 517:Generated_Source\PSoC4/CyFlash.c ****             * occur in the atomic way. It will not affect system call
 518:Generated_Source\PSoC4/CyFlash.c ****             * execution (flash row write) since it is executed in the NMI
 519:Generated_Source\PSoC4/CyFlash.c ****             * context.
 520:Generated_Source\PSoC4/CyFlash.c ****             ***************************************************************/
 521:Generated_Source\PSoC4/CyFlash.c ****             interruptState = CyEnterCriticalSection();
 522:Generated_Source\PSoC4/CyFlash.c **** 
 523:Generated_Source\PSoC4/CyFlash.c ****             clkCnfRetValue = CySysFlashClockBackup();
 524:Generated_Source\PSoC4/CyFlash.c **** 
 525:Generated_Source\PSoC4/CyFlash.c ****         #if(CY_IP_SPCIF_SYNCHRONOUS)
 526:Generated_Source\PSoC4/CyFlash.c ****             if(clkCnfRetValue == CY_SYS_FLASH_SUCCESS)
 527:Generated_Source\PSoC4/CyFlash.c ****             {
 528:Generated_Source\PSoC4/CyFlash.c ****                 retValue = CySysFlashClockConfig();
 529:Generated_Source\PSoC4/CyFlash.c ****             }
 530:Generated_Source\PSoC4/CyFlash.c ****         #endif  /* (CY_IP_SPCIF_SYNCHRONOUS) */
 531:Generated_Source\PSoC4/CyFlash.c **** 
 532:Generated_Source\PSoC4/CyFlash.c ****             if(retValue == CY_SYS_FLASH_SUCCESS)
 533:Generated_Source\PSoC4/CyFlash.c ****             {
 534:Generated_Source\PSoC4/CyFlash.c ****                 /* Write User Sflash Row */
 535:Generated_Source\PSoC4/CyFlash.c ****                 parameters[0u]  = (uint32) (((uint32) CY_FLASH_KEY_TWO(CY_FLASH_API_OPCODE_WRITE_SF
 536:Generated_Source\PSoC4/CyFlash.c ****                 parameters[1u] = (uint32) rowNum;
 537:Generated_Source\PSoC4/CyFlash.c **** 
 538:Generated_Source\PSoC4/CyFlash.c ****                 CY_FLASH_CPUSS_SYSARG_REG = (uint32) &parameters[0u];
 539:Generated_Source\PSoC4/CyFlash.c ****                 CY_FLASH_CPUSS_SYSREQ_REG = CY_FLASH_CPUSS_REQ_START | CY_FLASH_API_OPCODE_WRITE_SF
 540:Generated_Source\PSoC4/CyFlash.c ****                 CY_NOP;
 541:Generated_Source\PSoC4/CyFlash.c ****                 retValue = CY_FLASH_API_RETURN;
 542:Generated_Source\PSoC4/CyFlash.c ****             }
 543:Generated_Source\PSoC4/CyFlash.c **** 
 544:Generated_Source\PSoC4/CyFlash.c ****             if(clkCnfRetValue == CY_SYS_FLASH_SUCCESS)
 545:Generated_Source\PSoC4/CyFlash.c ****             {
 546:Generated_Source\PSoC4/CyFlash.c ****                 clkCnfRetValue = CySysFlashClockRestore();
 547:Generated_Source\PSoC4/CyFlash.c ****             }
 548:Generated_Source\PSoC4/CyFlash.c ****             CyExitCriticalSection(interruptState);
 549:Generated_Source\PSoC4/CyFlash.c ****         }
 550:Generated_Source\PSoC4/CyFlash.c ****     }
 551:Generated_Source\PSoC4/CyFlash.c ****     else
 552:Generated_Source\PSoC4/CyFlash.c ****     {
 553:Generated_Source\PSoC4/CyFlash.c ****         retValue = CY_SYS_FLASH_INVALID_ADDR;
ARM GAS  C:\Users\prana\AppData\Local\Temp\ccNLz197.s 			page 54


 554:Generated_Source\PSoC4/CyFlash.c ****     }
 555:Generated_Source\PSoC4/CyFlash.c **** 
 556:Generated_Source\PSoC4/CyFlash.c ****     return (retValue);
 557:Generated_Source\PSoC4/CyFlash.c **** }
 558:Generated_Source\PSoC4/CyFlash.c **** #endif /* (CY_SFLASH_XTRA_ROWS) */
 559:Generated_Source\PSoC4/CyFlash.c **** 
 560:Generated_Source\PSoC4/CyFlash.c **** 
 561:Generated_Source\PSoC4/CyFlash.c **** /*******************************************************************************
 562:Generated_Source\PSoC4/CyFlash.c **** * Function Name: CySysFlashClockBackup
 563:Generated_Source\PSoC4/CyFlash.c **** ****************************************************************************//**
 564:Generated_Source\PSoC4/CyFlash.c **** *
 565:Generated_Source\PSoC4/CyFlash.c **** * Backups the device clock configuration.
 566:Generated_Source\PSoC4/CyFlash.c **** *
 567:Generated_Source\PSoC4/CyFlash.c **** * \return The same as \ref CySysFlashWriteRow().
 568:Generated_Source\PSoC4/CyFlash.c **** *
 569:Generated_Source\PSoC4/CyFlash.c **** *******************************************************************************/
 570:Generated_Source\PSoC4/CyFlash.c **** static cystatus CySysFlashClockBackup(void)
 571:Generated_Source\PSoC4/CyFlash.c **** {
 572:Generated_Source\PSoC4/CyFlash.c ****     cystatus retValue = CY_SYS_FLASH_SUCCESS;
 573:Generated_Source\PSoC4/CyFlash.c **** #if(!CY_IP_FM)
 574:Generated_Source\PSoC4/CyFlash.c ****     #if !(CY_PSOC4_4000)
 575:Generated_Source\PSoC4/CyFlash.c ****         #if (CY_IP_SPCIF_SYNCHRONOUS)
 576:Generated_Source\PSoC4/CyFlash.c ****             volatile uint32   parameters[2u];
 577:Generated_Source\PSoC4/CyFlash.c ****         #endif /* (CY_IP_SPCIF_SYNCHRONOUS) */
 578:Generated_Source\PSoC4/CyFlash.c ****     #endif  /* !(CY_PSOC4_4000) */
 579:Generated_Source\PSoC4/CyFlash.c **** #endif  /* (!CY_IP_FM) */
 580:Generated_Source\PSoC4/CyFlash.c **** 
 581:Generated_Source\PSoC4/CyFlash.c **** #if(CY_IP_FM)
 582:Generated_Source\PSoC4/CyFlash.c **** 
 583:Generated_Source\PSoC4/CyFlash.c ****     /***************************************************************
 584:Generated_Source\PSoC4/CyFlash.c ****     * Preserve IMO configuration that could be changed during
 585:Generated_Source\PSoC4/CyFlash.c ****     * system call execution (Cypress ID #150448).
 586:Generated_Source\PSoC4/CyFlash.c ****     ***************************************************************/
 587:Generated_Source\PSoC4/CyFlash.c ****     cySysFlashBackup.imoConfigReg = CY_SYS_CLK_IMO_CONFIG_REG;
 588:Generated_Source\PSoC4/CyFlash.c **** 
 589:Generated_Source\PSoC4/CyFlash.c **** #else   /* (CY_IP_FMLT) */
 590:Generated_Source\PSoC4/CyFlash.c **** 
 591:Generated_Source\PSoC4/CyFlash.c ****     #if (CY_PSOC4_4000)
 592:Generated_Source\PSoC4/CyFlash.c **** 
 593:Generated_Source\PSoC4/CyFlash.c ****         /***************************************************************************
 594:Generated_Source\PSoC4/CyFlash.c ****         * Perform firmware clock settings backup for the PSOC4 4000 devices (the
 595:Generated_Source\PSoC4/CyFlash.c ****         * corresponding system call is not available).
 596:Generated_Source\PSoC4/CyFlash.c ****         ***************************************************************************/
 597:Generated_Source\PSoC4/CyFlash.c **** 
 598:Generated_Source\PSoC4/CyFlash.c ****         /***************************************************************************
 599:Generated_Source\PSoC4/CyFlash.c ****         * The registers listed below are modified by CySysFlashClockConfig().
 600:Generated_Source\PSoC4/CyFlash.c ****         *
 601:Generated_Source\PSoC4/CyFlash.c ****         * The registers to be saved:
 602:Generated_Source\PSoC4/CyFlash.c ****         * - CY_SYS_CLK_IMO_CONFIG_REG - IMO enable state.
 603:Generated_Source\PSoC4/CyFlash.c ****         * - CY_SYS_CLK_SELECT_REG     - HFCLK source, divider, pump source. Save
 604:Generated_Source\PSoC4/CyFlash.c ****         *                               entire register as it can be directly
 605:Generated_Source\PSoC4/CyFlash.c ****         *                               written on restore (no special
 606:Generated_Source\PSoC4/CyFlash.c ****         *                               requirements).
 607:Generated_Source\PSoC4/CyFlash.c ****         * - CY_SYS_CLK_IMO_SELECT_REG - Save IMO frequency.
 608:Generated_Source\PSoC4/CyFlash.c ****         *
 609:Generated_Source\PSoC4/CyFlash.c ****         * The registers not to be saved:
 610:Generated_Source\PSoC4/CyFlash.c ****         * - CY_SYS_CLK_IMO_TRIM1_REG  - No need to save. Function of frequency.
ARM GAS  C:\Users\prana\AppData\Local\Temp\ccNLz197.s 			page 55


 611:Generated_Source\PSoC4/CyFlash.c ****         *                               Restored by CySysClkWriteImoFreq().
 612:Generated_Source\PSoC4/CyFlash.c ****         * - CY_SYS_CLK_IMO_TRIM3_REG  - No need to save. Function of frequency.
 613:Generated_Source\PSoC4/CyFlash.c ****         *                               Restored by CySysClkWriteImoFreq().
 614:Generated_Source\PSoC4/CyFlash.c ****         * - REG_CPUSS_FLASH_CTL       - Flash wait cycles. Unmodified due to system
 615:Generated_Source\PSoC4/CyFlash.c ****         *                               clock 16 MHz limit.
 616:Generated_Source\PSoC4/CyFlash.c ****         ***************************************************************************/
 617:Generated_Source\PSoC4/CyFlash.c **** 
 618:Generated_Source\PSoC4/CyFlash.c ****         cySysFlashBackup.clkSelectReg = CY_SYS_CLK_SELECT_REG;
 619:Generated_Source\PSoC4/CyFlash.c ****         cySysFlashBackup.clkImoEna    = CY_SYS_CLK_IMO_CONFIG_REG & CY_SYS_CLK_IMO_CONFIG_ENABLE;
 620:Generated_Source\PSoC4/CyFlash.c ****         cySysFlashBackup.clkImoFreq   = CY_SYS_CLK_IMO_MIN_FREQ_MHZ + (CY_SYS_CLK_IMO_SELECT_REG <<
 621:Generated_Source\PSoC4/CyFlash.c **** 
 622:Generated_Source\PSoC4/CyFlash.c ****     #else
 623:Generated_Source\PSoC4/CyFlash.c **** 
 624:Generated_Source\PSoC4/CyFlash.c ****         #if (CY_IP_SPCIF_SYNCHRONOUS)
 625:Generated_Source\PSoC4/CyFlash.c ****             /* FM-Lite Clock Backup System Call */
 626:Generated_Source\PSoC4/CyFlash.c ****             parameters[0u] =
 663              		.loc 1 626 0
 664 0058 384B     		ldr	r3, .L35+20
 627:Generated_Source\PSoC4/CyFlash.c ****                 (uint32) ((CY_FLASH_KEY_TWO(CY_FLASH_API_OPCODE_CLK_BACKUP) <<  CY_FLASH_PARAM_KEY_
 628:Generated_Source\PSoC4/CyFlash.c ****                             CY_FLASH_KEY_ONE);
 629:Generated_Source\PSoC4/CyFlash.c ****             parameters[1u] = (uint32) &cySysFlashBackup.clockSettings[0u];
 665              		.loc 1 629 0
 666 005a 3949     		ldr	r1, .L35+24
 626:Generated_Source\PSoC4/CyFlash.c ****                 (uint32) ((CY_FLASH_KEY_TWO(CY_FLASH_API_OPCODE_CLK_BACKUP) <<  CY_FLASH_PARAM_KEY_
 667              		.loc 1 626 0
 668 005c 04AA     		add	r2, sp, #16
 669 005e 0493     		str	r3, [sp, #16]
 670              		.loc 1 629 0
 671 0060 0591     		str	r1, [sp, #20]
 630:Generated_Source\PSoC4/CyFlash.c ****             CY_FLASH_CPUSS_SYSARG_REG = (uint32) &parameters[0u];
 672              		.loc 1 630 0
 673 0062 2260     		str	r2, [r4]
 631:Generated_Source\PSoC4/CyFlash.c ****             CY_FLASH_CPUSS_SYSREQ_REG = CY_FLASH_CPUSS_REQ_START | CY_FLASH_API_OPCODE_CLK_BACKUP;
 674              		.loc 1 631 0
 675 0064 374A     		ldr	r2, .L35+28
 630:Generated_Source\PSoC4/CyFlash.c ****             CY_FLASH_CPUSS_SYSARG_REG = (uint32) &parameters[0u];
 676              		.loc 1 630 0
 677 0066 324B     		ldr	r3, .L35+8
 678              		.loc 1 631 0
 679 0068 3260     		str	r2, [r6]
 632:Generated_Source\PSoC4/CyFlash.c ****             CY_NOP;
 680              		.loc 1 632 0
 681              		.syntax divided
 682              	@ 632 "Generated_Source\PSoC4\CyFlash.c" 1
 683 006a C046     		NOP
 684              	
 685              	@ 0 "" 2
 633:Generated_Source\PSoC4/CyFlash.c ****             retValue = CY_FLASH_API_RETURN;
 686              		.loc 1 633 0
 687              		.thumb
 688              		.syntax unified
 689 006c 2268     		ldr	r2, [r4]
 690 006e 120F     		lsrs	r2, r2, #28
 691 0070 0F2A     		cmp	r2, #15
 692 0072 03D0     		beq	.L30
 693 0074 1A68     		ldr	r2, [r3]
 694 0076 120F     		lsrs	r2, r2, #28
ARM GAS  C:\Users\prana\AppData\Local\Temp\ccNLz197.s 			page 56


 695 0078 0A2A     		cmp	r2, #10
 696 007a 01D0     		beq	.L7
 697              	.L30:
 698 007c 1D68     		ldr	r5, [r3]
 699 007e EDB2     		uxtb	r5, r5
 700              	.L7:
 701              	.LVL5:
 702              	.LBE9:
 703              	.LBE8:
 145:Generated_Source\PSoC4/CyFlash.c **** 
 704              		.loc 1 145 0
 705 0080 0395     		str	r5, [sp, #12]
 148:Generated_Source\PSoC4/CyFlash.c ****             {
 706              		.loc 1 148 0
 707 0082 039B     		ldr	r3, [sp, #12]
 708 0084 002B     		cmp	r3, #0
 709 0086 10D1     		bne	.L8
 710              	.LVL6:
 711              	.LBB10:
 712              	.LBB11:
 634:Generated_Source\PSoC4/CyFlash.c ****         #endif /* (CY_IP_SPCIF_SYNCHRONOUS) */
 635:Generated_Source\PSoC4/CyFlash.c **** 
 636:Generated_Source\PSoC4/CyFlash.c ****     #endif  /* (CY_PSOC4_4000) */
 637:Generated_Source\PSoC4/CyFlash.c **** 
 638:Generated_Source\PSoC4/CyFlash.c **** #endif  /* (CY_IP_FM) */
 639:Generated_Source\PSoC4/CyFlash.c **** 
 640:Generated_Source\PSoC4/CyFlash.c ****     return (retValue);
 641:Generated_Source\PSoC4/CyFlash.c **** }
 642:Generated_Source\PSoC4/CyFlash.c **** 
 643:Generated_Source\PSoC4/CyFlash.c **** 
 644:Generated_Source\PSoC4/CyFlash.c **** #if(CY_IP_SPCIF_SYNCHRONOUS)
 645:Generated_Source\PSoC4/CyFlash.c **** /*******************************************************************************
 646:Generated_Source\PSoC4/CyFlash.c **** * Function Name: CySysFlashClockConfig
 647:Generated_Source\PSoC4/CyFlash.c **** ****************************************************************************//**
 648:Generated_Source\PSoC4/CyFlash.c **** *
 649:Generated_Source\PSoC4/CyFlash.c **** * Configures the device clocks for the flash writing.
 650:Generated_Source\PSoC4/CyFlash.c **** *
 651:Generated_Source\PSoC4/CyFlash.c **** * \return The same as \ref CySysFlashWriteRow().
 652:Generated_Source\PSoC4/CyFlash.c **** *
 653:Generated_Source\PSoC4/CyFlash.c **** *******************************************************************************/
 654:Generated_Source\PSoC4/CyFlash.c **** static cystatus CySysFlashClockConfig(void)
 655:Generated_Source\PSoC4/CyFlash.c **** {
 656:Generated_Source\PSoC4/CyFlash.c ****     cystatus retValue = CY_SYS_FLASH_SUCCESS;
 657:Generated_Source\PSoC4/CyFlash.c **** 
 658:Generated_Source\PSoC4/CyFlash.c ****     /***************************************************************************
 659:Generated_Source\PSoC4/CyFlash.c ****     * The FM-Lite IP uses the IMO at 48MHz for the pump clock and SPC timer
 660:Generated_Source\PSoC4/CyFlash.c ****     * clock. The PUMP_SEL and HF clock must be set to IMO before calling Flash
 661:Generated_Source\PSoC4/CyFlash.c ****     * write or erase operation.
 662:Generated_Source\PSoC4/CyFlash.c ****     ***************************************************************************/
 663:Generated_Source\PSoC4/CyFlash.c **** #if (CY_PSOC4_4000)
 664:Generated_Source\PSoC4/CyFlash.c **** 
 665:Generated_Source\PSoC4/CyFlash.c ****     /***************************************************************************
 666:Generated_Source\PSoC4/CyFlash.c ****     * Perform firmware clock settings setup for the PSOC4 4000 devices (the
 667:Generated_Source\PSoC4/CyFlash.c ****     * corresponding system call is not reliable):
 668:Generated_Source\PSoC4/CyFlash.c ****     * - The IMO frequency should be 48 MHz
 669:Generated_Source\PSoC4/CyFlash.c ****     * - The IMO should be source for the HFCLK
 670:Generated_Source\PSoC4/CyFlash.c ****     * - The IMO should be the source for the charge pump clock
ARM GAS  C:\Users\prana\AppData\Local\Temp\ccNLz197.s 			page 57


 671:Generated_Source\PSoC4/CyFlash.c ****     *
 672:Generated_Source\PSoC4/CyFlash.c ****     * Note The structure members used below are initialized by
 673:Generated_Source\PSoC4/CyFlash.c ****     * the CySysFlashClockBackup() function.
 674:Generated_Source\PSoC4/CyFlash.c ****     ***************************************************************************/
 675:Generated_Source\PSoC4/CyFlash.c ****     if ((cySysFlashBackup.clkImoFreq != 48u) ||
 676:Generated_Source\PSoC4/CyFlash.c ****         ((cySysFlashBackup.clkSelectReg & CY_SYS_CLK_SELECT_DIRECT_SEL_MASK) != CY_SYS_CLK_HFCLK_IM
 677:Generated_Source\PSoC4/CyFlash.c ****         (((cySysFlashBackup.clkSelectReg >> CY_SYS_CLK_SELECT_PUMP_SEL_SHIFT) & CY_SYS_CLK_SELECT_P
 678:Generated_Source\PSoC4/CyFlash.c ****             CY_SYS_CLK_SELECT_PUMP_SEL_IMO))
 679:Generated_Source\PSoC4/CyFlash.c ****     {
 680:Generated_Source\PSoC4/CyFlash.c ****         /***********************************************************************
 681:Generated_Source\PSoC4/CyFlash.c ****          Set HFCLK divider to divide-by-4 to ensure that System clock frequency
 682:Generated_Source\PSoC4/CyFlash.c ****         * is within the valid limit (16 MHz for the PSoC4 4000).
 683:Generated_Source\PSoC4/CyFlash.c ****         ***********************************************************************/
 684:Generated_Source\PSoC4/CyFlash.c ****         CySysClkWriteHfclkDiv(CY_SYS_CLK_HFCLK_DIV_4);
 685:Generated_Source\PSoC4/CyFlash.c **** 
 686:Generated_Source\PSoC4/CyFlash.c ****         /* The IMO frequency should be 48 MHz */
 687:Generated_Source\PSoC4/CyFlash.c ****         if (cySysFlashBackup.clkImoFreq != 48u)
 688:Generated_Source\PSoC4/CyFlash.c ****         {
 689:Generated_Source\PSoC4/CyFlash.c ****             CySysClkWriteImoFreq(48u);
 690:Generated_Source\PSoC4/CyFlash.c ****         }
 691:Generated_Source\PSoC4/CyFlash.c ****         CySysClkImoStart();
 692:Generated_Source\PSoC4/CyFlash.c **** 
 693:Generated_Source\PSoC4/CyFlash.c ****         /* The IMO should be source for the HFCLK */
 694:Generated_Source\PSoC4/CyFlash.c ****         CySysClkWriteHfclkDirect(CY_SYS_CLK_HFCLK_IMO);
 695:Generated_Source\PSoC4/CyFlash.c **** 
 696:Generated_Source\PSoC4/CyFlash.c ****         /* The IMO should be the source for the charge pump clock */
 697:Generated_Source\PSoC4/CyFlash.c ****         CY_SYS_CLK_SELECT_REG =  (CY_SYS_CLK_SELECT_REG &
 698:Generated_Source\PSoC4/CyFlash.c ****             ((uint32)~(uint32)(CY_SYS_CLK_SELECT_PUMP_SEL_MASK << CY_SYS_CLK_SELECT_PUMP_SEL_SHIFT)
 699:Generated_Source\PSoC4/CyFlash.c ****             ((uint32)((uint32)1u << CY_SYS_CLK_SELECT_PUMP_SEL_SHIFT));
 700:Generated_Source\PSoC4/CyFlash.c ****     }
 701:Generated_Source\PSoC4/CyFlash.c **** 
 702:Generated_Source\PSoC4/CyFlash.c **** #else
 703:Generated_Source\PSoC4/CyFlash.c **** 
 704:Generated_Source\PSoC4/CyFlash.c ****     /* FM-Lite Clock Configuration */
 705:Generated_Source\PSoC4/CyFlash.c ****     CY_FLASH_CPUSS_SYSARG_REG =
 713              		.loc 1 705 0
 714 0088 2F4D     		ldr	r5, .L35+32
 715 008a 294A     		ldr	r2, .L35+8
 716 008c 2560     		str	r5, [r4]
 706:Generated_Source\PSoC4/CyFlash.c ****         (uint32) ((CY_FLASH_KEY_TWO(CY_FLASH_API_OPCODE_CLK_CONFIG) <<  CY_FLASH_PARAM_KEY_TWO_OFFS
 707:Generated_Source\PSoC4/CyFlash.c ****                     CY_FLASH_KEY_ONE);
 708:Generated_Source\PSoC4/CyFlash.c ****     CY_FLASH_CPUSS_SYSREQ_REG = CY_FLASH_CPUSS_REQ_START | CY_FLASH_API_OPCODE_CLK_CONFIG;
 717              		.loc 1 708 0
 718 008e 2F4D     		ldr	r5, .L35+36
 719 0090 3560     		str	r5, [r6]
 709:Generated_Source\PSoC4/CyFlash.c ****     CY_NOP;
 720              		.loc 1 709 0
 721              		.syntax divided
 722              	@ 709 "Generated_Source\PSoC4\CyFlash.c" 1
 723 0092 C046     		NOP
 724              	
 725              	@ 0 "" 2
 710:Generated_Source\PSoC4/CyFlash.c ****     retValue = CY_FLASH_API_RETURN;
 726              		.loc 1 710 0
 727              		.thumb
 728              		.syntax unified
 729 0094 2568     		ldr	r5, [r4]
ARM GAS  C:\Users\prana\AppData\Local\Temp\ccNLz197.s 			page 58


 730 0096 2D0F     		lsrs	r5, r5, #28
 731 0098 0F2D     		cmp	r5, #15
 732 009a 03D0     		beq	.L31
 733 009c 1568     		ldr	r5, [r2]
 734 009e 2D0F     		lsrs	r5, r5, #28
 735 00a0 0A2D     		cmp	r5, #10
 736 00a2 01D0     		beq	.L10
 737              	.L31:
 738 00a4 1368     		ldr	r3, [r2]
 739 00a6 DBB2     		uxtb	r3, r3
 740              	.L10:
 741              	.LVL7:
 742              	.LBE11:
 743              	.LBE10:
 150:Generated_Source\PSoC4/CyFlash.c ****             }
 744              		.loc 1 150 0
 745 00a8 0293     		str	r3, [sp, #8]
 746              	.L8:
 154:Generated_Source\PSoC4/CyFlash.c ****             {
 747              		.loc 1 154 0
 748 00aa 029B     		ldr	r3, [sp, #8]
 749 00ac 002B     		cmp	r3, #0
 750 00ae 16D1     		bne	.L11
 157:Generated_Source\PSoC4/CyFlash.c ****                 parameters[0u] |= (uint32)(rowNum << 16u);
 751              		.loc 1 157 0
 752 00b0 274A     		ldr	r2, .L35+40
 753 00b2 0892     		str	r2, [sp, #32]
 158:Generated_Source\PSoC4/CyFlash.c **** 
 754              		.loc 1 158 0
 755 00b4 019A     		ldr	r2, [sp, #4]
 756 00b6 089D     		ldr	r5, [sp, #32]
 757 00b8 1204     		lsls	r2, r2, #16
 758 00ba 2A43     		orrs	r2, r5
 161:Generated_Source\PSoC4/CyFlash.c ****                 CY_NOP;
 759              		.loc 1 161 0
 760 00bc 254D     		ldr	r5, .L35+44
 158:Generated_Source\PSoC4/CyFlash.c **** 
 761              		.loc 1 158 0
 762 00be 0892     		str	r2, [sp, #32]
 160:Generated_Source\PSoC4/CyFlash.c ****                 CY_FLASH_CPUSS_SYSREQ_REG = CY_FLASH_CPUSS_REQ_START | CY_FLASH_API_OPCODE_WRITE_RO
 763              		.loc 1 160 0
 764 00c0 2760     		str	r7, [r4]
 765 00c2 1B4A     		ldr	r2, .L35+8
 161:Generated_Source\PSoC4/CyFlash.c ****                 CY_NOP;
 766              		.loc 1 161 0
 767 00c4 3560     		str	r5, [r6]
 162:Generated_Source\PSoC4/CyFlash.c ****                 retValue = CY_FLASH_API_RETURN;
 768              		.loc 1 162 0
 769              		.syntax divided
 770              	@ 162 "Generated_Source\PSoC4\CyFlash.c" 1
 771 00c6 C046     		NOP
 772              	
 773              	@ 0 "" 2
 163:Generated_Source\PSoC4/CyFlash.c ****             }
 774              		.loc 1 163 0
 775              		.thumb
 776              		.syntax unified
ARM GAS  C:\Users\prana\AppData\Local\Temp\ccNLz197.s 			page 59


 777 00c8 2568     		ldr	r5, [r4]
 778 00ca 2D0F     		lsrs	r5, r5, #28
 779 00cc 0F2D     		cmp	r5, #15
 780 00ce 03D0     		beq	.L32
 163:Generated_Source\PSoC4/CyFlash.c ****             }
 781              		.loc 1 163 0 is_stmt 0 discriminator 2
 782 00d0 1568     		ldr	r5, [r2]
 783 00d2 2D0F     		lsrs	r5, r5, #28
 784 00d4 0A2D     		cmp	r5, #10
 785 00d6 01D0     		beq	.L13
 786              	.L32:
 163:Generated_Source\PSoC4/CyFlash.c ****             }
 787              		.loc 1 163 0 discriminator 4
 788 00d8 1368     		ldr	r3, [r2]
 789 00da DBB2     		uxtb	r3, r3
 790              	.L13:
 163:Generated_Source\PSoC4/CyFlash.c ****             }
 791              		.loc 1 163 0 discriminator 8
 792 00dc 0293     		str	r3, [sp, #8]
 793              	.L11:
 202:Generated_Source\PSoC4/CyFlash.c ****             {
 794              		.loc 1 202 0 is_stmt 1
 795 00de 039B     		ldr	r3, [sp, #12]
 796 00e0 002B     		cmp	r3, #0
 797 00e2 18D1     		bne	.L15
 798              	.LVL8:
 799              	.LBB12:
 800              	.LBB13:
 711:Generated_Source\PSoC4/CyFlash.c **** 
 712:Generated_Source\PSoC4/CyFlash.c **** #endif  /* (CY_PSOC4_4000) */
 713:Generated_Source\PSoC4/CyFlash.c **** 
 714:Generated_Source\PSoC4/CyFlash.c ****     return (retValue);
 715:Generated_Source\PSoC4/CyFlash.c **** }
 716:Generated_Source\PSoC4/CyFlash.c **** #endif  /* (CY_IP_SPCIF_SYNCHRONOUS) */
 717:Generated_Source\PSoC4/CyFlash.c **** 
 718:Generated_Source\PSoC4/CyFlash.c **** 
 719:Generated_Source\PSoC4/CyFlash.c **** /*******************************************************************************
 720:Generated_Source\PSoC4/CyFlash.c **** * Function Name: CySysFlashClockRestore
 721:Generated_Source\PSoC4/CyFlash.c **** ****************************************************************************//**
 722:Generated_Source\PSoC4/CyFlash.c **** *
 723:Generated_Source\PSoC4/CyFlash.c **** * Restores the device clock configuration.
 724:Generated_Source\PSoC4/CyFlash.c **** *
 725:Generated_Source\PSoC4/CyFlash.c **** * \return The same as \ref CySysFlashWriteRow().
 726:Generated_Source\PSoC4/CyFlash.c **** *
 727:Generated_Source\PSoC4/CyFlash.c **** *******************************************************************************/
 728:Generated_Source\PSoC4/CyFlash.c **** static cystatus CySysFlashClockRestore(void)
 729:Generated_Source\PSoC4/CyFlash.c **** {
 730:Generated_Source\PSoC4/CyFlash.c ****     cystatus retValue = CY_SYS_FLASH_SUCCESS;
 731:Generated_Source\PSoC4/CyFlash.c **** #if(!CY_IP_FM)
 732:Generated_Source\PSoC4/CyFlash.c ****     #if !(CY_PSOC4_4000)
 733:Generated_Source\PSoC4/CyFlash.c ****         #if (CY_IP_SPCIF_SYNCHRONOUS)
 734:Generated_Source\PSoC4/CyFlash.c ****             volatile uint32   parameters[2u];
 735:Generated_Source\PSoC4/CyFlash.c ****         #endif /* (CY_IP_SPCIF_SYNCHRONOUS) */
 736:Generated_Source\PSoC4/CyFlash.c ****     #endif  /* !(CY_PSOC4_4000) */
 737:Generated_Source\PSoC4/CyFlash.c **** #endif  /* (!CY_IP_FM) */
 738:Generated_Source\PSoC4/CyFlash.c **** 
 739:Generated_Source\PSoC4/CyFlash.c **** #if(CY_IP_FM)
ARM GAS  C:\Users\prana\AppData\Local\Temp\ccNLz197.s 			page 60


 740:Generated_Source\PSoC4/CyFlash.c **** 
 741:Generated_Source\PSoC4/CyFlash.c ****     /***************************************************************
 742:Generated_Source\PSoC4/CyFlash.c ****     * Restore IMO configuration that could be changed during
 743:Generated_Source\PSoC4/CyFlash.c ****     * system call execution (Cypress ID #150448).
 744:Generated_Source\PSoC4/CyFlash.c ****     ***************************************************************/
 745:Generated_Source\PSoC4/CyFlash.c ****     CY_SYS_CLK_IMO_CONFIG_REG = cySysFlashBackup.imoConfigReg;
 746:Generated_Source\PSoC4/CyFlash.c **** 
 747:Generated_Source\PSoC4/CyFlash.c **** #else
 748:Generated_Source\PSoC4/CyFlash.c **** 
 749:Generated_Source\PSoC4/CyFlash.c ****     #if (CY_PSOC4_4000)
 750:Generated_Source\PSoC4/CyFlash.c **** 
 751:Generated_Source\PSoC4/CyFlash.c ****         /***************************************************************************
 752:Generated_Source\PSoC4/CyFlash.c ****         * Perform firmware clock settings restore for the PSOC4 4000 devices (the
 753:Generated_Source\PSoC4/CyFlash.c ****         * corresponding system call is not available).
 754:Generated_Source\PSoC4/CyFlash.c ****         ***************************************************************************/
 755:Generated_Source\PSoC4/CyFlash.c **** 
 756:Generated_Source\PSoC4/CyFlash.c ****         /* Restore clock settings */
 757:Generated_Source\PSoC4/CyFlash.c ****         if ((cySysFlashBackup.clkImoFreq != 48u) ||
 758:Generated_Source\PSoC4/CyFlash.c ****             ((cySysFlashBackup.clkSelectReg & CY_SYS_CLK_SELECT_DIRECT_SEL_MASK) != CY_SYS_CLK_HFCL
 759:Generated_Source\PSoC4/CyFlash.c ****             (((cySysFlashBackup.clkSelectReg >> CY_SYS_CLK_SELECT_PUMP_SEL_SHIFT) & CY_SYS_CLK_SELE
 760:Generated_Source\PSoC4/CyFlash.c ****                 CY_SYS_CLK_SELECT_PUMP_SEL_IMO))
 761:Generated_Source\PSoC4/CyFlash.c ****         {
 762:Generated_Source\PSoC4/CyFlash.c ****             /* Restore IMO frequency if needed */
 763:Generated_Source\PSoC4/CyFlash.c ****             if (cySysFlashBackup.clkImoFreq != 48u)
 764:Generated_Source\PSoC4/CyFlash.c ****             {
 765:Generated_Source\PSoC4/CyFlash.c ****                 CySysClkWriteImoFreq(cySysFlashBackup.clkImoFreq);
 766:Generated_Source\PSoC4/CyFlash.c ****             }
 767:Generated_Source\PSoC4/CyFlash.c **** 
 768:Generated_Source\PSoC4/CyFlash.c ****             /* Restore HFCLK clock source */
 769:Generated_Source\PSoC4/CyFlash.c ****             CySysClkWriteHfclkDirect(cySysFlashBackup.clkSelectReg & CY_SYS_CLK_SELECT_DIRECT_SEL_M
 770:Generated_Source\PSoC4/CyFlash.c **** 
 771:Generated_Source\PSoC4/CyFlash.c ****             /* Restore HFCLK divider and source for pump  */
 772:Generated_Source\PSoC4/CyFlash.c ****             CY_SYS_CLK_SELECT_REG = cySysFlashBackup.clkSelectReg;
 773:Generated_Source\PSoC4/CyFlash.c **** 
 774:Generated_Source\PSoC4/CyFlash.c ****             /* Stop IMO if needed */
 775:Generated_Source\PSoC4/CyFlash.c ****             if (0u == cySysFlashBackup.clkImoEna)
 776:Generated_Source\PSoC4/CyFlash.c ****             {
 777:Generated_Source\PSoC4/CyFlash.c ****                 CySysClkImoStop();
 778:Generated_Source\PSoC4/CyFlash.c ****             }
 779:Generated_Source\PSoC4/CyFlash.c ****         }
 780:Generated_Source\PSoC4/CyFlash.c **** 
 781:Generated_Source\PSoC4/CyFlash.c ****     #else
 782:Generated_Source\PSoC4/CyFlash.c **** 
 783:Generated_Source\PSoC4/CyFlash.c ****         #if (CY_IP_SPCIF_SYNCHRONOUS)
 784:Generated_Source\PSoC4/CyFlash.c ****             /* FM-Lite Clock Restore */
 785:Generated_Source\PSoC4/CyFlash.c ****             parameters[0u] =
 801              		.loc 1 785 0
 802 00e4 1C4A     		ldr	r2, .L35+48
 803 00e6 06AD     		add	r5, sp, #24
 804 00e8 0692     		str	r2, [sp, #24]
 786:Generated_Source\PSoC4/CyFlash.c ****                 (uint32) ((CY_FLASH_KEY_TWO(CY_FLASH_API_OPCODE_CLK_RESTORE) <<  CY_FLASH_PARAM_KEY
 787:Generated_Source\PSoC4/CyFlash.c ****                             CY_FLASH_KEY_ONE);
 788:Generated_Source\PSoC4/CyFlash.c ****             parameters[1u] = (uint32) &cySysFlashBackup.clockSettings[0u];
 805              		.loc 1 788 0
 806 00ea 0791     		str	r1, [sp, #28]
 789:Generated_Source\PSoC4/CyFlash.c ****             CY_FLASH_CPUSS_SYSARG_REG = (uint32) &parameters[0u];
 790:Generated_Source\PSoC4/CyFlash.c ****             CY_FLASH_CPUSS_SYSREQ_REG = CY_FLASH_CPUSS_REQ_START | CY_FLASH_API_OPCODE_CLK_RESTORE;
ARM GAS  C:\Users\prana\AppData\Local\Temp\ccNLz197.s 			page 61


 807              		.loc 1 790 0
 808 00ec 1B49     		ldr	r1, .L35+52
 789:Generated_Source\PSoC4/CyFlash.c ****             CY_FLASH_CPUSS_SYSARG_REG = (uint32) &parameters[0u];
 809              		.loc 1 789 0
 810 00ee 2560     		str	r5, [r4]
 811 00f0 0F4A     		ldr	r2, .L35+8
 812              		.loc 1 790 0
 813 00f2 3160     		str	r1, [r6]
 791:Generated_Source\PSoC4/CyFlash.c ****             CY_NOP;
 814              		.loc 1 791 0
 815              		.syntax divided
 816              	@ 791 "Generated_Source\PSoC4\CyFlash.c" 1
 817 00f4 C046     		NOP
 818              	
 819              	@ 0 "" 2
 792:Generated_Source\PSoC4/CyFlash.c ****             retValue = CY_FLASH_API_RETURN;
 820              		.loc 1 792 0
 821              		.thumb
 822              		.syntax unified
 823 00f6 2168     		ldr	r1, [r4]
 824 00f8 090F     		lsrs	r1, r1, #28
 825 00fa 0F29     		cmp	r1, #15
 826 00fc 03D0     		beq	.L33
 827 00fe 1168     		ldr	r1, [r2]
 828 0100 090F     		lsrs	r1, r1, #28
 829 0102 0A29     		cmp	r1, #10
 830 0104 01D0     		beq	.L17
 831              	.L33:
 832 0106 1368     		ldr	r3, [r2]
 833 0108 DBB2     		uxtb	r3, r3
 834              	.L17:
 835              	.LVL9:
 836              	.LBE13:
 837              	.LBE12:
 204:Generated_Source\PSoC4/CyFlash.c **** 
 838              		.loc 1 204 0
 839 010a 0393     		str	r3, [sp, #12]
 206:Generated_Source\PSoC4/CyFlash.c ****                 {
 840              		.loc 1 206 0
 841 010c 039B     		ldr	r3, [sp, #12]
 842 010e 002B     		cmp	r3, #0
 843 0110 01D0     		beq	.L15
 208:Generated_Source\PSoC4/CyFlash.c ****                 }
 844              		.loc 1 208 0
 845 0112 039B     		ldr	r3, [sp, #12]
 846 0114 0293     		str	r3, [sp, #8]
 847              	.L15:
 212:Generated_Source\PSoC4/CyFlash.c ****         }
 848              		.loc 1 212 0
 849 0116 FFF7FEFF 		bl	CyExitCriticalSection
 850              	.LVL10:
 851 011a 01E0     		b	.L5
 852              	.LVL11:
 853              	.L2:
 217:Generated_Source\PSoC4/CyFlash.c ****     }
 854              		.loc 1 217 0
 855 011c 0423     		movs	r3, #4
ARM GAS  C:\Users\prana\AppData\Local\Temp\ccNLz197.s 			page 62


 856 011e 0293     		str	r3, [sp, #8]
 857              	.LVL12:
 858              	.L5:
 220:Generated_Source\PSoC4/CyFlash.c **** }
 859              		.loc 1 220 0
 860 0120 0298     		ldr	r0, [sp, #8]
 221:Generated_Source\PSoC4/CyFlash.c **** 
 861              		.loc 1 221 0
 862 0122 2BB0     		add	sp, sp, #172
 863              		@ sp needed
 864 0124 F0BD     		pop	{r4, r5, r6, r7, pc}
 865              	.L36:
 866 0126 C046     		.align	2
 867              	.L35:
 868 0128 FF010000 		.word	511
 869 012c B6D70000 		.word	55222
 870 0130 08001040 		.word	1074790408
 871 0134 04001040 		.word	1074790404
 872 0138 04000080 		.word	-2147483644
 873 013c B6E90000 		.word	59830
 874 0140 00000000 		.word	.LANCHOR0
 875 0144 16000080 		.word	-2147483626
 876 0148 B6E80000 		.word	59574
 877 014c 15000080 		.word	-2147483627
 878 0150 B6D80000 		.word	55478
 879 0154 05000080 		.word	-2147483643
 880 0158 B6EA0000 		.word	60086
 881 015c 17000080 		.word	-2147483625
 882              		.cfi_endproc
 883              	.LFE0:
 884              		.size	CySysFlashWriteRow, .-CySysFlashWriteRow
 885              		.section	.text.CySysFlashSetWaitCycles,"ax",%progbits
 886              		.align	1
 887              		.global	CySysFlashSetWaitCycles
 888              		.code	16
 889              		.thumb_func
 890              		.type	CySysFlashSetWaitCycles, %function
 891              	CySysFlashSetWaitCycles:
 892              	.LFB1:
 423:Generated_Source\PSoC4/CyFlash.c ****     uint8  interruptState;
 893              		.loc 1 423 0
 894              		.cfi_startproc
 895              		@ args = 0, pretend = 0, frame = 0
 896              		@ frame_needed = 0, uses_anonymous_args = 0
 897              	.LVL13:
 898 0000 70B5     		push	{r4, r5, r6, lr}
 899              		.cfi_def_cfa_offset 16
 900              		.cfi_offset 4, -16
 901              		.cfi_offset 5, -12
 902              		.cfi_offset 6, -8
 903              		.cfi_offset 14, -4
 423:Generated_Source\PSoC4/CyFlash.c ****     uint8  interruptState;
 904              		.loc 1 423 0
 905 0002 0500     		movs	r5, r0
 426:Generated_Source\PSoC4/CyFlash.c **** 
 906              		.loc 1 426 0
 907 0004 FFF7FEFF 		bl	CyEnterCriticalSection
ARM GAS  C:\Users\prana\AppData\Local\Temp\ccNLz197.s 			page 63


 908              	.LVL14:
 909 0008 0400     		movs	r4, r0
 910              	.LVL15:
 441:Generated_Source\PSoC4/CyFlash.c ****             {
 911              		.loc 1 441 0
 912 000a 102D     		cmp	r5, #16
 913 000c 04D8     		bhi	.L38
 443:Generated_Source\PSoC4/CyFlash.c ****             } else
 914              		.loc 1 443 0
 915 000e 0321     		movs	r1, #3
 916 0010 0E4A     		ldr	r2, .L44
 917 0012 1368     		ldr	r3, [r2]
 918 0014 8B43     		bics	r3, r1
 919 0016 07E0     		b	.L42
 920              	.L38:
 445:Generated_Source\PSoC4/CyFlash.c ****             {
 921              		.loc 1 445 0
 922 0018 202D     		cmp	r5, #32
 923 001a 07D8     		bhi	.L40
 447:Generated_Source\PSoC4/CyFlash.c ****             } else
 924              		.loc 1 447 0
 925 001c 0321     		movs	r1, #3
 926 001e 0B4A     		ldr	r2, .L44
 927 0020 1368     		ldr	r3, [r2]
 928 0022 8B43     		bics	r3, r1
 929 0024 0239     		subs	r1, r1, #2
 930              	.L43:
 931 0026 0B43     		orrs	r3, r1
 932              	.L42:
 933 0028 1360     		str	r3, [r2]
 934 002a 0AE0     		b	.L39
 935              	.L40:
 450:Generated_Source\PSoC4/CyFlash.c ****                 {
 936              		.loc 1 450 0
 937 002c 302D     		cmp	r5, #48
 938 002e 05D8     		bhi	.L41
 452:Generated_Source\PSoC4/CyFlash.c ****                 }
 939              		.loc 1 452 0
 940 0030 0321     		movs	r1, #3
 941 0032 064A     		ldr	r2, .L44
 942 0034 1368     		ldr	r3, [r2]
 943 0036 8B43     		bics	r3, r1
 944 0038 0139     		subs	r1, r1, #1
 945 003a F4E7     		b	.L43
 946              	.L41:
 459:Generated_Source\PSoC4/CyFlash.c ****         }
 947              		.loc 1 459 0 discriminator 1
 948 003c 0020     		movs	r0, #0
 949 003e FFF7FEFF 		bl	CyHalt
 950              	.LVL16:
 951              	.L39:
 464:Generated_Source\PSoC4/CyFlash.c **** }
 952              		.loc 1 464 0
 953 0042 2000     		movs	r0, r4
 954 0044 FFF7FEFF 		bl	CyExitCriticalSection
 955              	.LVL17:
 465:Generated_Source\PSoC4/CyFlash.c **** 
ARM GAS  C:\Users\prana\AppData\Local\Temp\ccNLz197.s 			page 64


 956              		.loc 1 465 0
 957              		@ sp needed
 958              	.LVL18:
 959              	.LVL19:
 960 0048 70BD     		pop	{r4, r5, r6, pc}
 961              	.L45:
 962 004a C046     		.align	2
 963              	.L44:
 964 004c 30001040 		.word	1074790448
 965              		.cfi_endproc
 966              	.LFE1:
 967              		.size	CySysFlashSetWaitCycles, .-CySysFlashSetWaitCycles
 968              		.bss
 969              		.align	2
 970              		.set	.LANCHOR0,. + 0
 971              		.type	cySysFlashBackup, %object
 972              		.size	cySysFlashBackup, 24
 973              	cySysFlashBackup:
 974 0000 00000000 		.space	24
 974      00000000 
 974      00000000 
 974      00000000 
 974      00000000 
 975              		.text
 976              	.Letext0:
 977              		.file 2 "Generated_Source\\PSoC4\\cytypes.h"
 978              		.file 3 "Generated_Source\\PSoC4\\CyFlash.h"
 979              		.file 4 "Generated_Source\\PSoC4\\CyLib.h"