ARM GAS  C:\Users\prana\AppData\Local\Temp\ccFskXBz.s 			page 1


   1              		.syntax unified
   2              		.cpu cortex-m0
   3              		.fpu softvfp
   4              		.eabi_attribute 20, 1
   5              		.eabi_attribute 21, 1
   6              		.eabi_attribute 23, 3
   7              		.eabi_attribute 24, 1
   8              		.eabi_attribute 25, 1
   9              		.eabi_attribute 26, 1
  10              		.eabi_attribute 30, 4
  11              		.eabi_attribute 34, 0
  12              		.eabi_attribute 18, 4
  13              		.thumb
  14              		.syntax unified
  15              		.file	"EZI2C_1_scl.c"
  16              		.text
  17              	.Ltext0:
  18              		.section	.gnu.lto_.profile.b369cafa,"",%progbits
  19 0000 789C6361 		.ascii	"x\234ca`d`a`\000\222\352\212\000\000\331\000S"
  19      60646061 
  19      600092EA 
  19      8A0000D9 
  19      0053
  20              		.text
  21              		.section	.gnu.lto_.icf.b369cafa,"",%progbits
  22 0000 789C6361 		.ascii	"x\234ca`d\000\0015\006\004`c\270\274y\362l\026\306+"
  22      60640001 
  22      35060460 
  22      63B8BC79 
  22      F26C16C6 
  23 0015 CF27B4B1 		.ascii	"\317'\264\2613\335>>{\017\017\363\314\005g:XY\2367-"
  23      33DD3E3E 
  23      7B0F0FF3 
  23      CC05673A 
  23      58599E37 
  24 002a DDCCC37A 		.ascii	"\335\314\303zh\326\2569\214\014\000R\245\020\350"
  24      68D6AE39 
  24      8C0C0052 
  24      A510E8
  25              		.text
  26              		.section	.gnu.lto_.jmpfuncs.b369cafa,"",%progbits
  27 0000 789C45C9 		.ascii	"x\234E\311\261\001\000 \010\300\260\026\320+\374\225"
  27      B1010020 
  27      08C0B016 
  27      D02BFC95 
  28 0010 D795C90C 		.ascii	"\327\225\311\014]Z\3108|\033\265\235\004$Thv\257\367"
  28      5D5AC838 
  28      7C1BB59D 
  28      04245468 
  28      76AFF7
  29 0023 2E215502 		.ascii	".!U\002@"
  29      40
  30              		.text
  31              		.section	.gnu.lto_.inline.b369cafa,"",%progbits
  32 0000 789C658D 		.ascii	"x\234e\215\311\015\2000\014\004\327\216\343\030\011"
  32      C90D8030 
  32      0C04D78E 
ARM GAS  C:\Users\prana\AppData\Local\Temp\ccFskXBz.s 			page 2


  32      E31809
  33 000f 093A4807 		.ascii	"\011:H\007\224@\245<R\012%P\012%`\203\004B\231\307>"
  33      9440A53C 
  33      520A2550 
  33      0A256083 
  33      044299C7 
  34 0024 767C0808 		.ascii	"v|\010\010\301\206\017\005\254\020\301\\%\333Wh\253"
  34      C1860F05 
  34      AC10C15C 
  34      25DB5768 
  34      AB
  35 0035 0C3E2609 		.ascii	"\014>&\011K\030\254\223\322\352-\031\232\011\254\347"
  35      4B18AC93 
  35      D2EA2D19 
  35      9A09ACE7 
  36 0045 F2F44EEA 		.ascii	"\362\364N\352+\211\023\214\331OP\204\374\237x\2141\226"
  36      2B89138C 
  36      D94F5084 
  36      FC9F788C 
  36      3196
  37 0057 51D4375F 		.ascii	"Q\3247_\031\\\353\300\017\342"
  37      195CEBC0 
  37      0FE2
  38              		.text
  39              		.section	.gnu.lto_.pureconst.b369cafa,"",%progbits
  40 0000 789C6361 		.ascii	"x\234ca`d\340e```c\220b\224b\222b\226b\221b\225\002"
  40      6064E065 
  40      60606063 
  40      90629462 
  40      92629662 
  41 0018 00059500 		.ascii	"\000\005\225\000\304"
  41      C4
  42              		.text
  43              		.section	.gnu.lto_EZI2C_1_scl_SetDriveMode.b369cafa,"",%progbits
  44 0000 789C7D51 		.ascii	"x\234}QMK[A\024\275g\346\345E\021u+\230\205\033\321"
  44      4D4B5B41 
  44      14BD67E6 
  44      E5451175 
  44      2B98851B 
  45 0015 8048FDF8 		.ascii	"\200H\375\370\007\"\342NtW\224 \361\355Z\003\266\256"
  45      0722E24E 
  45      74579420 
  45      F1ED5A03 
  45      B6AE
  46 0027 9DE4E5A1 		.ascii	"\235\344\345\241\270\012\224\006\\\210\253\240V[\015"
  46      B80A9406 
  46      5C88ABA0 
  46      565B0D
  47 0036 01A55D85 		.ascii	"\001\245]\205\210]\246\033q)\242\360\212\256\342\027"
  47      885DA61B 
  47      7129A2F0 
  47      8AAEE217 
  48 0046 88A8CF7B 		.ascii	"\210\250\317{_\262v`\356\275s8\347pf\306\"\220\254#"
  48      5FB27660 
  48      EEBD7338 
  48      E77066C6 
  48      2290AC23 
ARM GAS  C:\Users\prana\AppData\Local\Temp\ccFskXBz.s 			page 3


  49 005a 6E7DDC3B 		.ascii	"n}\334;yC\023T\256J\224nR\200\014\246\011\264\244\260"
  49      79431354 
  49      AE4A946E 
  49      52800CA6 
  49      09B4A4B0 
  50 006e 8407F5A2 		.ascii	"\204\007\365\242PY\366\177\253\370\246\341u\356\371"
  50      5059F67F 
  50      ABF8A6E1 
  50      75EEF9
  51 007d 1369E375 		.ascii	"\023i\343ux\232(P\241\023a\023qf\335\225\012\337Zt/"
  51      789A2850 
  51      A1136113 
  51      7166DD95 
  51      0ADF5A74 
  52 0092 88E79B6A 		.ascii	"\210\347\233j\355\254\255\247`L\306\230\322\214\321"
  52      EDACADA7 
  52      604CC698 
  52      D28CD1
  53 00a1 9E06B6A0 		.ascii	"\236\006\266\240Y\201\241\030>\304\210\001\3026z\204"
  53      5981A118 
  53      3EC48801 
  53      C2367A84 
  54 00b1 7C517CFD 		.ascii	"|Q|\375\336jg\305\276\253n\212\037\260%\346\336d\331"
  54      DE6A67C5 
  54      BEAB6E8A 
  54      1FB025E6 
  54      DE64D9
  55 00c4 04816BCA 		.ascii	"\004\201k\312%\373\370\300nV,SZ\212\005\021Gd\264\245"
  55      25FBF8C0 
  55      6E562C53 
  55      5A8A0511 
  55      4764B4A5 
  56 00d8 44A510D5 		.ascii	"D\245\020\325xK\374\033\245\244k\037\225\247\325\323"
  56      784BFC1B 
  56      A5A46B1F 
  56      95A7D5D3 
  57 00e8 355BFC5C 		.ascii	"5[\374\\-W\311{\225\177\321{\345i\035\346<<J\377W\365"
  57      2D57C97B 
  57      957FD17B 
  57      E5691DE6 
  57      3C3C4AFF 
  58 00fe E34A3667 		.ascii	"\343J6g,\206r\217Ecm`=\235\205\247-\354\"\206\035\304"
  58      2C86728F 
  58      45636D60 
  58      3D9D85A7 
  58      2DEC2286 
  59 0114 38D34F6C 		.ascii	"8\323Ol\200|\270\317\015;]w<\271\275*\206\026\012\301"
  59      807CB8CF 
  59      0D3B5D77 
  59      3CB9BD2A 
  59      86160AC1 
  60 0128 6510B4E3 		.ascii	"e\020\264\343\027\263}dn\243uZ\304\325\226\310j\015"
  60      17B37D64 
  60      6EA3755A 
  60      C4D596C8 
  60      6A0D
  61 013a 99402CDB 		.ascii	"\231@,\3339(\374\201\310\"h\306^(q\037\033\224hhn3T"
ARM GAS  C:\Users\prana\AppData\Local\Temp\ccFskXBz.s 			page 4


  61      3928FC81 
  61      C82268C6 
  61      5E28711F 
  61      1B946868 
  62 0151 C943A0F7 		.ascii	"\311C\240\367b\355s,\226\32052\345\303\277J\350\341"
  62      62ED732C 
  62      96D03532 
  62      E5C3BF4A 
  62      E8E1
  63 0163 AFD414E4 		.ascii	"\257\324\024\344\015\370E\272\307\234yga\366\2533\227"
  63      0DF845BA 
  63      C79C7967 
  63      61F6AB33 
  63      97
  64 0174 984A2D2E 		.ascii	"\230J-.$\235\351\211\251\324\310\360\364\350\307\361"
  64      249DE989 
  64      A9D4C8F0 
  64      F4E8C7F1 
  65 0184 C191C440 		.ascii	"\301\221\304@\342K\362S\177\222\254\317\2519\347\015"
  65      E24BF253 
  65      7F92ACCF 
  65      A939E70D 
  66 0194 728F9F36 		.ascii	"r\217\2376"
  67              		.text
  68              		.section	.gnu.lto_EZI2C_1_scl_Write.b369cafa,"",%progbits
  69 0000 789C5551 		.ascii	"x\234UQKkSA\030\2353s_%f\353\306,\272\011\265\233R\255"
  69      4B6B5341 
  69      189D3373 
  69      5F2566EB 
  69      C62CBA09 
  70 0018 FFA04871 		.ascii	"\377\240Hq'\026\\H0\204\364\256\014\026\242\355\266"
  70      27165C48 
  70      3084F4AE 
  70      0C16A2ED 
  70      B6
  71 0029 93375428 		.ascii	"\2237T(ua\273\020SD4\365\331V\261 \270\270^\204\356"
  71      7561BB10 
  71      534434F5 
  71      D956B120 
  71      B8B85E84 
  72 003e 22A2F880 		.ascii	"\"\242\370\200Z\244bD7\306\322R\251\326\370}w6\315p"
  72      5AA46244 
  72      37C6D252 
  72      A9D6F87D 
  72      7736CD70 
  73 0052 EFCCDC73 		.ascii	"\357\314\334s\3179s\276o,\001\301\343\202\024b\210\326"
  73      CF3973BE 
  73      6F2C01C1 
  73      E3821462 
  73      88D6
  74 0064 23F44209 		.ascii	"#\364B\011\310\331\246\020\005O\002\274\321\036\304"
  74      C8D9A610 
  74      054F02BC 
  74      D11EC4
  75 0073 94C41476 		.ascii	"\224\304\024v\344\276DXk=\223\375\015M\343\363\327\335"
  75      E4BE4458 
  75      6B3D93FD 
ARM GAS  C:\Users\prana\AppData\Local\Temp\ccFskXBz.s 			page 5


  75      0D4DE3F3 
  75      D7DD
  76 0085 41BD18A0 		.ascii	"A\275\030\240\242\204\350\310\310I\240\201~b}{^{\013"
  76      A284E8C8 
  76      C849A081 
  76      7E627D7B 
  76      5E7B0B
  77 0098 751482F6 		.ascii	"u\024\202\366\325p\247\035\353\273\255uQ\353\375\224"
  77      D570A71D 
  77      EBBBAD75 
  77      51EBFD94 
  78 00a8 5615052C 		.ascii	"V\025\005,B\221\002C\011\014&\004\001\002w\321\307\344"
  78      42910243 
  78      090C2604 
  78      010277D1 
  78      C7E4
  79 00ba EFE1959C 		.ascii	"\357\341\225\234\032\210tk\253W;H\336b]\360f->\257\203"
  79      1A88746B 
  79      AB573B48 
  79      DE625DF0 
  79      662D3EAF 
  80 00cf 422F6BEF 		.ascii	"B/k\357\035\324\362 \356\346\312\277kq\247\314\251z"
  80      1DD4F220 
  80      EEE6CABF 
  80      6B71A7CC 
  80      A97A
  81 00e1 711F4993 		.ascii	"q\037I\223\007\017\340P\205`d\351L\240;\235\222\016"
  81      070FE050 
  81      856064E9 
  81      4CA03B9D 
  81      920E
  82 00f3 5EBB2F3E 		.ascii	"^\273/>\2701I\247JE\223\262\004\377\266\301\011\034"
  82      B83149A7 
  82      4A4593B2 
  82      04FFB6C1 
  82      091C
  83 0105 065C9EBC 		.ascii	"\006\\\236\274\010\355a\226\020mz\271\023\277\244\344"
  83      08ED6196 
  83      106D7AB9 
  83      13BFA4E4 
  84 0115 55B510EE 		.ascii	"U\265\020\356M7\353\223\354_R\334\225\271J\370\312\335"
  84      4D37EB93 
  84      EC5F52DC 
  84      95B94AF8 
  84      CADD
  85 0127 96156545 		.ascii	"\226\025eE\321\3774\267\177\306\314\247.\317j\213\240"
  85      D1FF34B7 
  85      7FC6CCA7 
  85      2ECF6A8B 
  85      A0
  86 0138 EB4F573F 		.ascii	"\353OW?\305\027p\243P\246~\331x\204\004\036\202\362"
  86      C51770A3 
  86      50A67ED9 
  86      7884041E 
  86      82F2
  87 014a 63090B10 		.ascii	"c\011\013\020-\024\267j\353\322\030*\362$\244\364\267"
  87      2D14B76A 
ARM GAS  C:\Users\prana\AppData\Local\Temp\ccFskXBz.s 			page 6


  87      EBD2182A 
  87      F224A4F4 
  87      B7
  88 015b BA0E8358 		.ascii	"\272\016\203X\004\222\307\306\227;/\301\266\012\273"
  88      0492C7C6 
  88      973B2FC1 
  88      B60ABB
  89 016a C032C937 		.ascii	"\3002\3117\021i8+\261X\324\256\276\253\2377*zl\276\261"
  89      1169382B 
  89      B158D4AE 
  89      BEAB9F37 
  89      2A7A6CBE 
  90 017f ADE5C621 		.ascii	"\255\345\306!V9PX!Q\227\265K<\"M\357\275\237\361\230"
  90      56395058 
  90      215197B5 
  90      4B3C224D 
  90      EFBD9FF1 
  91 0194 0478786C 		.ascii	"\004xxlH\277\035C\361\242\000n\367a\236\311\274QO\031"
  91      48BF1D43 
  91      F1A2006E 
  91      F7619EC9 
  91      BC514F19 
  92 01a8 528F81C2 		.ascii	"R\217\201\302\271\233\207\031\350\252\270\240u\254\273"
  92      B99B8719 
  92      E8AAB8A0 
  92      75ACBB
  93 01b7 E8275434 		.ascii	"\350'T4i\304\017\024\203\217#,\210n\262-\301\015\246"
  93      69C40F14 
  93      838F232C 
  93      886EB22D 
  93      C10DA6
  94 01ca 762747FC 		.ascii	"v'G\374\213~>s\331\037K\217\216O\344\263~\352\364\350"
  94      8B7E3E73 
  94      D91F4B8F 
  94      8E4FE4B3 
  94      7EEAF4E8 
  95 01de F8F089D4 		.ascii	"\370\360\211\324\311s\247\216\017\247\217\245/es\003"
  95      C973A78E 
  95      0FA78FA5 
  95      2F657303 
  96 01ee 59614F66 		.ascii	"YaOfr\023\276=\226?\233\311\375\007Fv\326%"
  96      7213BE3D 
  96      963F9BC9 
  96      FD074676 
  96      D625
  97              		.text
  98              		.section	.gnu.lto_EZI2C_1_scl_Read.b369cafa,"",%progbits
  99 0000 789C2D8F 		.ascii	"x\234-\217\273K\003A\020\306\347\333\275<8\364/0\205"
  99      BB4B0341 
  99      10C6E7DB 
  99      BD3C38F4 
  99      2F3085
 100 0013 8D481AF1 		.ascii	"\215H\032\361\325XY\004\025;1]\010\004\211\327\211\201"
 100      D5585904 
 100      153B315D 
 100      080489D7 
 100      8981
ARM GAS  C:\Users\prana\AppData\Local\Temp\ccFskXBz.s 			page 7


 101 0025 A87536B9 		.ascii	"\250u6\271\273\010b\221F\305B\322\231\304\007*J\012"
 101      BB086291 
 101      46C542D2 
 101      99C4072A 
 101      4A0A
 102 0037 0B8921A0 		.ascii	"\013\211!\240 \230\316N\020\221\024V1(\202\250q6q`g"
 102      2098CE4E 
 102      10911456 
 102      312882A8 
 102      71367160 
 103 004c 76677FFB 		.ascii	"vg\177\373}\263\006\201tLr\031\344\332\307\013\222 "
 103      7DB30681 
 103      744C7219 
 103      E4DAC70B 
 103      9220
 104 005e 72F74469 		.ascii	"r\367Di\277\000\364F\371A)\201\024>\304\217\300\335"
 104      BF00F446 
 104      F9412981 
 104      143EC48F 
 104      C0DD
 105 0070 E7EDA619 		.ascii	"\347\355\246\031,(\225QO\356\376\304N\261\002W\022\265"
 105      2C289551 
 105      4FEEFEC4 
 105      4EB10257 
 105      12B5
 106 0082 05612C80 		.ascii	"\005a,\200\341\200\226( H\214>\237\375n\365z\035\305"
 106      E1809628 
 106      20488C3E 
 106      9FFD6EF5 
 106      7A1DC5
 107 0095 D1AF01BE 		.ascii	"\321\257\001\276)\302\253-O\346+\252\335\266U\345\334"
 107      29C2AB2D 
 107      4FE62BAA 
 107      DDB655E5 
 107      DC
 108 00a6 BC2E9BDC 		.ascii	"\274.\233\334r%\373r2t\362\220V\244&\277\320\376oB\350"
 108      7225FB72 
 108      3274F290 
 108      56A426BF 
 108      D0FE6F42 
 109 00bb 2A1BA87E 		.ascii	"*\033\250~m<\224\"Z\304\226\222\015\266\335j\335\367"
 109      6D3C9422 
 109      5AC49692 
 109      0DB6DD6A 
 109      DDF7
 110 00cd 2E5C29A0 		.ascii	".\\)\240\375.w\312W\262{t\234\2342\270U\177\334m\232"
 110      FD2E77CA 
 110      57B27B74 
 110      9C9C32B8 
 110      557FDC6D 
 111 00e2 79ECA51D 		.ascii	"y\354\245\035\236R\342\000\001\224\3003\342\020yP\003"
 111      9E52E200 
 111      0194C033 
 111      E2107950 
 111      03
 112 00f3 766B9A6C 		.ascii	"vk\232l\211\256\\\265uZ\350\321\357\015H\0341\306\367"
 112      89AE5CB5 
ARM GAS  C:\Users\prana\AppData\Local\Temp\ccFskXBz.s 			page 8


 112      755AE8D1 
 112      EF0D481C 
 112      31C6F7
 113 0106 DFD99AAF 		.ascii	"\337\331\232\257kh0\307\320E\355&\353\327\0208\216;"
 113      6B6830C7 
 113      D045ED26 
 113      EBD71038 
 113      8E3B
 114 0118 50A6B5FE 		.ascii	"P\246\265\376\202.\344a\216^!\376O\324\371\006\364\370"
 114      822EE461 
 114      8E5E21FE 
 114      4FD4F906 
 114      F4F8
 115 012a FC998119 		.ascii	"\374\231\201\031k\331J.\254Z\213\261pb-\031\267\242"
 115      6BD94A2E 
 115      AC5A8BB1 
 115      70622D19 
 115      B7A2
 116 013c 73E14468 		.ascii	"s\341Dh<:\025\231\035\015\305Fb+\361\245\2418\375\001"
 116      3C3A1599 
 116      1D0DC546 
 116      622BF1A5 
 116      A138FD01 
 117 0150 6A217589 		.ascii	"j!u\211"
 118              		.text
 119              		.section	.gnu.lto_EZI2C_1_scl_ReadDataReg.b369cafa,"",%progbits
 120 0000 789C2D8F 		.ascii	"x\234-\217MKBA\024\206\317;sM\311\374\005\271h\023\341"
 120      4D4B4241 
 120      1486CF3B 
 120      734DC9FC 
 120      05B96813 
 121 0015 26FADAB4 		.ascii	"&\372\332\264j!\025\355\"w\"H\330\335E\202\325\332\321"
 121      6A2115ED 
 121      22772248 
 121      D8DD4582 
 121      D5DAD1
 122 0028 EB358816 		.ascii	"\3535\210\026n\252\205\224K\255\214\212>\326&BA`\277"
 122      6EAA8594 
 122      4BAD8C8A 
 122      3ED62642 
 122      4160BF
 123 003b 20880817 		.ascii	" \210\010\027m*\261\202\276\354\214\267\003s\316\314"
 123      6D2AB182 
 123      BEEC8CB7 
 123      0373CECC 
 124 004b 9967DEF7 		.ascii	"\231g\336\367\214A \035\023\\\006\270\366\362\202$\210"
 124      8C41201D 
 124      135C06B8 
 124      F6F28224 
 124      88
 125 005c 5C9D28E5 		.ascii	"\\\235(\345\021\200\336(\017()\220\304\233\370\021\270"
 125      1180DE28 
 125      0F282990 
 125      C49BF811 
 125      B8
 126 006d F9B8DEE8 		.ascii	"\371\270\336\350\016\024\225J\253{\373t|\273T\201-\211"
 126      0E14954A 
ARM GAS  C:\Users\prana\AppData\Local\Temp\ccFskXBz.s 			page 9


 126      AB7BFB74 
 126      7CBB5481 
 126      2D89
 127 007f DA8230EA 		.ascii	"\332\2020\352\307\220_K\024\021 F\037N~7}]\031\305\321"
 127      C7905F4B 
 127      14112046 
 127      1F4E7E37 
 127      7D5D19C5 
 128 0094 A701BE29 		.ascii	"\247\001\276)\241K[\036\315UT\273m\251J\336{\271\353"
 128      A14B5B1E 
 128      CD5554BB 
 128      6DA94ADE 
 128      7BB9EB
 129 00a7 E5962DD9 		.ascii	"\345\226-\331\227\223\241\223\213\264\"\275\360\013"
 129      9793A193 
 129      8BB422BD 
 129      F00B
 130 00b5 EDFF2A84 		.ascii	"\355\377*\204\256\262\201\352\347\372{9\254E,)\331`"
 130      AEB281EA 
 130      E7FA7B39 
 130      AC452C29 
 130      D960
 131 00c7 CBAEDEBA 		.ascii	"\313\256\336\272[\302\226\002\332\357\253\336z\366:"
 131      5BC29602 
 131      DAEFABDE 
 131      7AF63A
 132 00d6 4795C929 		.ascii	"G\225\311)\203[\371\363\213;_\001;\251\014O)\261\017"
 132      835BF9F3 
 132      8B3B5F01 
 132      3BA90C4F 
 132      29B10F
 133 00e9 3FF6C033 		.ascii	"?\366\3003\342\000\005P\003Vs\212,\011G\256\332<.\366"
 133      E2000550 
 133      0356738A 
 133      2C0947AE 
 133      DA3C2EF6 
 134 00fd E8F70624 		.ascii	"\350\367\006$\312\214\361\375w\266\346v\014\015\346"
 134      CA8CF1FD 
 134      77B6E676 
 134      0C0DE6
 135 010c 183AAB5D 		.ascii	"\030:\253]e=\032\002\307a\007J7\327\036\341@.\346\350"
 135      653D1A02 
 135      C761074A 
 135      37D71EE1 
 135      402EE6E8 
 136 0120 09E2FF44 		.ascii	"\011\342\377D\235o@\217\317\237\351\2376\227\314\304"
 136      9D6F408F 
 136      CF9FE99F 
 136      3697CCC4 
 137 0130 FC8AB910 		.ascii	"\374\212\271\020\015\305W\023132\033\212\007\307\"\223"
 137      0DC55713 
 137      3133321B 
 137      8A07C722 
 137      93
 138 0141 E1999160 		.ascii	"\341\231\221`t8\272\034[\034\214\321\037\346\207v'"
 138      7438BA1C 
 138      5B1C8CD1 
ARM GAS  C:\Users\prana\AppData\Local\Temp\ccFskXBz.s 			page 10


 138      1FE68776 
 138      27
 139              		.text
 140              		.section	.gnu.lto_EZI2C_1_scl_SetInterruptMode.b369cafa,"",%progbits
 141 0000 789C6D51 		.ascii	"x\234mQMh\023A\024\2367\263\311n\222v\365n\016\271\204"
 141      4D681341 
 141      149E37B3 
 141      C96E9276 
 141      F56E0EB9 
 142 0015 D88B1011 		.ascii	"\330\213\020\021o^\014\"^\244\330\233\024BI\243\004"
 142      6F5E0C22 
 142      5EA4D89B 
 142      144249A3 
 142      04
 143 0026 3491349E 		.ascii	"4\2214\236;\311\356\246PD\212b\300b(*K\252U\373_\260"
 143      3BC9EEA6 
 143      50448A62 
 143      C062282A 
 143      4BAA55FB 
 144 003c A735201E 		.ascii	"\2475 \036\374\243Z\021\177\020\251\230B\351!m\225J"
 144      FCA35A11 
 144      7F10A998 
 144      42E9216D 
 144      954A
 145 004e A98DEFED 		.ascii	"\251\215\357\355\346Rp`w\346}|\3377\337{\2430`\264j"
 145      E6527060 
 145      77E67D7C 
 145      DF37DF7B 
 145      A33060B4 
 146 0063 9CB113B8 		.ascii	"\234\261\023\270\037\302\017\004\003>\362\206\261\242"
 146      1FC20F04 
 146      033EF286 
 146      B1A2
 147 0071 C601E820 		.ascii	"\306\001\350 5`\203\034\006\3417\377\313\241>\324x\312"
 147      3560831C 
 147      06E137FF 
 147      CBA13ED4 
 147      78CA
 148 0083 BB6A12D7 		.ascii	"\273j\022\327\367\237\253q9\356\200%\030kq\327\211A"
 148      F79FAB71 
 148      39EE8025 
 148      186B71D7 
 148      8941
 149 0095 0DBA90F5 		.ascii	"\015\272\220\365\274\265\355\034\370\305-\001@\242w"
 149      BCB5ED1C 
 149      F8C52D01 
 149      40A277
 150 00a4 CD57D510 		.ascii	"\315W\325\020\225\034\016b9\272fWtq\030\030\236W\347"
 150      951C0E62 
 150      39BA6657 
 150      74711818 
 150      9E57E7
 151 00b7 EE7D0CC6 		.ascii	"\356}\014\306l)KR\316\367I\237%\004<\004\201~\360\000"
 151      6C294B52 
 151      CEF7499F 
 151      25043C04 
 151      817EF000 
ARM GAS  C:\Users\prana\AppData\Local\Temp\ccFskXBz.s 			page 11


 152 00cb C2300E61 		.ascii	"\3020\016a\206\020\203\011\210!{k\326\276\031\022qW"
 152      86108309 
 152      88217B6B 
 152      D6BE1912 
 152      7157
 153 00dd B969D846 		.ascii	"\271i\330FG[\271\335V>\372\217\3621\304\210\276dN\335"
 153      475BB9DD 
 153      563EFA8F 
 153      F231C488 
 153      BE644EDD 
 154 00f1 115E2405 		.ascii	"\021^$\005\313\215\327\243?t/R\004\313\011\373\203\315"
 154      CB8DD7A3 
 154      3F742F52 
 154      04CB09FB 
 154      83CD
 155 0103 C571D778 		.ascii	"\305q\327x\370\323\215\231\316\350}2v\336_\327oK\307"
 155      F8D38D99 
 155      CEE87D32 
 155      76DE5FD7 
 155      6F4BC7
 156 0116 8C584281 		.ascii	"\214XB\201)\317|\022\315\237\2409-d\257L\357\335\352"
 156      29CF7C12 
 156      CD9FA039 
 156      2D64AF4C 
 156      EFDDEA
 157 0129 F49B3490 		.ascii	"\364\2334\220\010LC\324\033\005\314\200\037\207\013"
 157      084C43D4 
 157      1B05CC80 
 157      1F870B
 158 0138 844C9E73 		.ascii	"\204L\236sd\253eHgI\177\366Y\357\340\030\313\207)\260"
 158      64AB6548 
 158      67497FF6 
 158      59EFE018 
 158      CB8729B0 
 159 014c 23858E3E 		.ascii	"#\205\216>\372\371\0311U\240\264\032\002\376\000\241"
 159      FAF91931 
 159      55A0B41A 
 159      02FE00A1 
 160 015c 41FA31D6 		.ascii	"A\3721\326DGz\211\015\316i\027\015\250\357\014\177["
 160      44477A89 
 160      0DCE6917 
 160      0DA8EF0C 
 160      7F5B
 161 016e ECA64B0C 		.ascii	"\354\246K\014A\003\256X\365\267*u\243\272\035T\315\027"
 161      4103AE58 
 161      F5B72A75 
 161      A3BA1D54 
 161      CD17
 162 0180 27BDEA9A 		.ascii	"'\275\352\2329\"\251\335\227\313\013;\372\030T\213&"
 162      3922A9DD 
 162      97CB0B3B 
 162      FA18548B 
 162      26
 163 0191 3E970673 		.ascii	">\227\006s\330\303,\365\000\3630\006\254\001\245\315"
 163      D8C32CF5 
 163      00F33006 
 163      AC01A5CD 
ARM GAS  C:\Users\prana\AppData\Local\Temp\ccFskXBz.s 			page 12


 164 01a1 A15D9FE7 		.ascii	"\241]\237\347\247\03085D\366\312\353\212\207\370\020"
 164      A7183835 
 164      44F6CAEB 
 164      8A87F810 
 165 01b1 44C4D82D 		.ascii	"D\304\330-\257\203\207\320\265\210\263\025\340n\247"
 165      AF8387D0 
 165      B588B315 
 165      E06EA7
 166 01c0 981D418F 		.ascii	"\230\035A\217\323X\374\332fi\350d\010\325\265W=(\200"
 166      D358FCDA 
 166      6669E864 
 166      08D5B557 
 166      3D2880
 167 01d3 28D1FE94 		.ascii	"(\321\376\224\227\333\346A\327-\200`\275r7L\330\276"
 167      97DBE641 
 167      D72D8060 
 167      BD72374C 
 167      D8BE
 168 01e5 B8452943 		.ascii	"\270E)C\373\023/`b\224\2615(9_\316\222\300}\212&\007"
 168      FB132F60 
 168      6294B135 
 168      28395FCE 
 168      92C07D8A 
 169 01fb 1A0E8E2A 		.ascii	"\032\016\216*z:\235M\347\373\012\351\376dO\356j>\225"
 169      7A3A9D4D 
 169      E7FB0AE9 
 169      FE644FEE 
 169      6A3E95
 170 020e EEEDEEC9 		.ascii	"\356\355\356\311%\216\365\236:\177\346h\"\031O\016\244"
 170      258EF59E 
 170      3A7FE668 
 170      22194F0E 
 170      A4
 171 021f 2E1D4931 		.ascii	".\035I1\355Jn S\310\344\262\312\345\\\177Z\315d\013"
 171      ED4A6E20 
 171      53C8E4B2 
 171      CAE55C7F 
 171      5ACD640B 
 172 0233 F9C4858B 		.ascii	"\371\304\205\213\377\000\252A\356\370"
 172      FF00AA41 
 172      EEF8
 173              		.text
 174              		.section	.gnu.lto_EZI2C_1_scl_ClearInterrupt.b369cafa,"",%progbits
 175 0000 789C5590 		.ascii	"x\234U\220\315K\033Q\024\305\357yo\306\244\022\361\017"
 175      CD4B1B51 
 175      14C5EF79 
 175      6FC6A412 
 175      F10F
 176 0012 68166E02 		.ascii	"h\026n\002uS\374Z\350Z\244\270\223fW\002!\304YU+\230"
 176      7553FC5A 
 176      E85AA4B8 
 176      93665702 
 176      21C45955 
 177 0028 B8D51793 		.ascii	"\270\325\027\223Q)\202\331\030\241P,\024:\266Z\265\213"
 177      512982D9 
 177      18A1502C 
 177      143AB65A 
ARM GAS  C:\Users\prana\AppData\Local\Temp\ccFskXBz.s 			page 13


 177      B58B
 178 003a AE24320D 		.ascii	"\256$2\015\245\024\245\012\356\005Qp!\010\032\374\000"
 178      A514A50A 
 178      EE055170 
 178      21081AFC 
 178      00
 179 004b B5A6F766 		.ascii	"\265\246\367f\\\324\007\303{\357\314=\277w\356\265\010"
 179      5CD407C3 
 179      7BEFCC3D 
 179      BF77EEB5 
 179      08
 180 005c 246B9FB7 		.ascii	"$k\237\267.\336\237\362\007MP\305\035\242\\X\001r0a"
 180      2EDE9FF2 
 180      074D50C5 
 180      1DA25C58 
 180      01723061 
 181 0070 D084C204 		.ascii	"\320\204\302\004.\325_\205\355\353\337\263\215\255\236"
 181      2ED55F85 
 181      EDEBDFB3 
 181      8DAD9E
 182 007f 3193E6C0 		.ascii	"1\223\346\300\275\356YX\362\341j\242\232\"tF\321\026"
 182      BDEE5958 
 182      F2E16AA2 
 182      9A227446 
 182      D116
 183 0091 15848756 		.ascii	"\025\204\207V\342\322\243\325[\257I?\203\234\377|:\375"
 183      E2D2A3D5 
 183      5BAF493F 
 183      839CFF7C 
 183      3AFD
 184 00a3 8ED847B1 		.ascii	"\216\330G\261\371\345\271\310\202\361s-\354\303\022"
 184      F9E5B9C8 
 184      82F1732D 
 184      ECC312
 185 00b2 F4FF5692 		.ascii	"\364\377V\222\332\303o\367\363M\015\005\303\253\005"
 185      DAC36FF7 
 185      F34D0D05 
 185      C3AB05
 186 00c1 9F111338 		.ascii	"\237\021\0238S\277\240\201sB\224\265\227\276\251\325"
 186      53BFA081 
 186      734294B5 
 186      97BEA9D5 
 187 00d1 F2C6DF68 		.ascii	"\362\306\337h\376\261\327\034V\344j\316\355je\221\374"
 187      FEB1D71C 
 187      56E46ACE 
 187      ED6A6591 
 187      FC
 188 00e2 B6E51E22 		.ascii	"\266\345\036\"\311Eg\354\225.\316\225\222]\037\243r"
 188      C94567EC 
 188      952ECE95 
 188      925D1FA3 
 188      72
 189 00f3 F3F6AA3C 		.ascii	"\363\366\252<.\270\274\226\216Jne7t\241\\\255\353I\337"
 189      2EB8BC96 
 189      8E4A6E65 
 189      3774A15C 
 189      ADEB49DF 
ARM GAS  C:\Users\prana\AppData\Local\Temp\ccFskXBz.s 			page 14


 190 0107 DD7E9841 		.ascii	"\335~\230Ap-\026\212\306b\311\335\362\266\237,\342}"
 190      702D168A 
 190      C662C9DD 
 190      F2B69F2C 
 190      E27D
 191 0119 AEC0BD5A 		.ascii	"\256\300\275ZXA\024\313\340\270\370\212E\3201&\253\323"
 191      584114CB 
 191      E0B8F88A 
 191      45D03126 
 191      ABD3
 192 012b 772A006A 		.ascii	"w*\000jf\262\222\277\233\372\211@\261X\024\354\306\305"
 192      66B292BF 
 192      9BFA8940 
 192      B15814EC 
 192      C6C5
 193 013d 962D5885 		.ascii	"\226-X\2050V\331}\210\272E\362rQ@\271/'\002\223\035"
 193      3056D97D 
 193      88BA45F2 
 193      725140B9 
 193      2F270293 
 194 0152 4895521D 		.ascii	"H\225R\035\362(B\316\030\373q\2125N\301\026y\266:\365"
 194      F22842CE 
 194      18FB718A 
 194      354EC116 
 194      79B63AF5 
 195 0166 6BB33B40 		.ascii	"k\263;@\204\030\301\306Ju\335\213\310\27364\326\271"
 195      8418C1C6 
 195      4A75DD8B 
 195      C8BB3634 
 195      D6B9
 196 0178 FE040F51 		.ascii	"\376\004\017QCT\037\017d,<\244\330\013\347\2153\232"
 196      43541F0F 
 196      642C3CA4 
 196      D80BE78D 
 196      339A
 197 018a CA3A83C9 		.ascii	"\312:\203\311\370\310\330h\332I\014\304Gz\273\022}\257"
 197      F8C8D868 
 197      DA490CC4 
 197      477ABB12 
 197      7DAF
 198 019c FA3B7A93 		.ascii	"\372;z\223\355\311Lz\350y\232\"\303\251\314kg0\236M"
 198      EDC94C7A 
 198      E8799A22 
 198      C3A9CC6B 
 198      67309E4D 
 199 01b0 65C732FF 		.ascii	"e\3072\377\000\006\243\254+"
 199      0006A3AC 
 199      2B
 200              		.text
 201              		.section	.gnu.lto_.symbol_nodes.b369cafa,"",%progbits
 202 0000 789C6361 		.ascii	"x\234ca`d\310`\000\002&\206z\006\206\011\347\030@\324"
 202      6064C860 
 202      00022686 
 202      7A068609 
 202      E71840D4 
 203 0014 AE0645A0 		.ascii	"\256\006E\240\000c=#\252\000S=\023\252\000s=3\252\000"
 203      00633D23 
ARM GAS  C:\Users\prana\AppData\Local\Temp\ccFskXBz.s 			page 15


 203      AA00533D 
 203      13AA0073 
 203      3D33AA00 
 204 0028 4B3D0BAA 		.ascii	"K=\013\252\000k=+\212\000\003\000\305\333\026\342"
 204      006B3D2B 
 204      8A000300 
 204      C5DB16E2 
 205              		.text
 206              		.section	.gnu.lto_.refs.b369cafa,"",%progbits
 207 0000 789C6361 		.ascii	"x\234ca`\004B \000\000\0009\000\007"
 207      60044220 
 207      00000039 
 207      0007
 208              		.text
 209              		.section	.gnu.lto_.decls.b369cafa,"",%progbits
 210 0000 789C8D54 		.ascii	"x\234\215T}LSW\024\277\347\275\327\012\217V\220\030"
 210      7D4C5357 
 210      14BFE7BD 
 210      D70A8F56 
 210      9018
 211 0012 4796FEC1 		.ascii	"G\226\376\301\314\326\366/2\300,&\213\311\022\334\324"
 211      CCD6F62F 
 211      32C02C26 
 211      8BC912DC 
 211      D4
 212 0023 649B8B64 		.ascii	"d\233\213d.YHH\205\027Gb\300\324\262\304\377n\020\235"
 212      2E594848 
 212      85174762 
 212      C0D4B2C4 
 212      FF6E109D 
 213 0037 FBC8C63E 		.ascii	"\373\310\306>\334`\201\015%\270\"\224o\220V7\312\006"
 213      DC60810D 
 213      25B82294 
 213      6F905637 
 213      CA06
 214 0049 88B57ED0 		.ascii	"\210\265~\320}D%\023\014\262\315A\026\366\211nq\335"
 214      7D442513 
 214      0CB2CD41 
 214      16F6896E 
 214      71DD
 215 005b B9F7BEF6 		.ascii	"\271\367\276\366=\261d\334\364\334\373\356\3519\277"
 215      3DB164DC 
 215      F4DCFBEE 
 215      E939BF
 216 006a F33BBF77 		.ascii	"\363;\277w\362\024\002\204\255\270\205\220;xv\3405\216"
 216      F2140284 
 216      ADB88590 
 216      3B7876E0 
 216      358E
 217 007c 6B0D3EEF 		.ascii	"k\015>\357&\306\262\242\365\241\015\240\015\241\205"
 217      26C6B2A2 
 217      F5A10DA0 
 217      0DA185
 218 008b D046D1C6 		.ascii	"\320F\321\306\311\203\253O\217g\371\235h.\264\030\332"
 218      C983AB4F 
 218      8F67F99D 
 218      682EB418 
ARM GAS  C:\Users\prana\AppData\Local\Temp\ccFskXBz.s 			page 16


 218      DA
 219 009c 24DA4E3D 		.ascii	"$\332N=\006\364\270\345\213\341\257Y\226\353X!\177 "
 219      06F4B8E5 
 219      8BE1AF59 
 219      96EB5821 
 219      7F20
 220 00ae 453EE366 		.ascii	"E>\343f\371\237\272C)\362B\253\310\013\245\310c\032"
 220      F99FBA43 
 220      29F242AB 
 220      C80BA5C8 
 220      631A
 221 00c0 A4EB7CB3 		.ascii	"\244\353|\263\321\326\243\015\243Eu\034\247\011+\201"
 221      D1D6A30D 
 221      A345751C 
 221      A7092B81 
 222 00d0 339A0287 		.ascii	"3\232\002\207\351h]E\317\251\364\276'A\274\251\323\237"
 222      E9685D45 
 222      CFA9F4BE 
 222      2741BCA9 
 222      D39F
 223 00e2 3E05D740 		.ascii	">\005\327@\002\375\205\022\000\261\0037\"\214_\361A"
 223      02FD8512 
 223      00B10337 
 223      228C5FF1 
 223      41
 224 00f3 E23B49BA 		.ascii	"\342;I\272\222\007a;\021\361\334g\200\361_\342\214'"
 224      9207613B 
 224      11F1DC67 
 224      80F15FE2 
 224      8C27
 225 0105 160731D0 		.ascii	"\026\0071\320AO\202$\003\221%\376\227\3640\"\300%#\301"
 225      414F8224 
 225      039125FE 
 225      97F43022 
 225      C02523C1 
 226 0119 8427E89A 		.ascii	"\204'\350\2328\301\375=A\242\351\2535\261\237U\0311"
 226      38C1FD3D 
 226      41A2E9AB 
 226      35B19F55 
 226      1931
 227 012b F179FAAE 		.ascii	"\361y\372\256\377\231\274\016\212\253\216R\351IC\231"
 227      FF99BC0E 
 227      8AAB8E52 
 227      E9494399 
 228 013b AEC3B7DA 		.ascii	"\256\303\267\332\322\376\220\300\241B\034\330}!x\327"
 228      D2FE90C0 
 228      A1421CD8 
 228      7D2178D7 
 229 014b 2EEEECEF 		.ascii	".\356\354\357\206wg\377\315\220\037e\317\322\327\263"
 229      867767FF 
 229      CD901F65 
 229      CFD2D7B3 
 230 015b EDB71570 		.ascii	"\355\267\025p\253'\031\314\314@\333\226 \245Y\320\011"
 230      AB2719CC 
 230      CC40DB96 
 230      20A559D0 
 230      09
ARM GAS  C:\Users\prana\AppData\Local\Temp\ccFskXBz.s 			page 17


 231 016c 2A74800C 		.ascii	"*t\200\014m\220\307\212;T\334\217RZC\027OPk\016\201"
 231      6D90C78A 
 231      3B54DC8F 
 231      525A4317 
 231      4F506B0E 
 232 0181 42073CEE 		.ascii	"B\007<\356 \020\0007\303dQ\320\016\0168\005\016\206"
 232      20100037 
 232      C36451D0 
 232      0E0E3805 
 232      0E86
 233 0193 3FF7D1A7 		.ascii	"?\367\321\247\363VE\302D\206\263Ga\276\261\370R8\023"
 233      F35645C2 
 233      4486B347 
 233      61BEB1F8 
 233      523813
 234 01a6 2964AB20 		.ascii	")d\253 \3415\266\030m\312\300\353z\025\262\360z\351"
 234      E135B618 
 234      6DCAC0EB 
 234      7A15B2F0 
 234      7AE9
 235 01b8 836B31C8 		.ascii	"\203k1\310\371\220q\240\207h\256\004\2737@\017\002v"
 235      F99071A0 
 235      8768AE04 
 235      BB37400F 
 235      0276
 236 01ca 2320815E 		.ascii	"# \201^\310\301\275\013\024\321\335\373\267\374\275"
 236      C8C1BD0B 
 236      14D1DDFB 
 236      B7FCBD
 237 01d9 CAC666DA 		.ascii	"\312\306f\332\334Mg\202G\236=\336r\204^\301\274\247"
 237      DC4D6782 
 237      479E3DDE 
 237      72845EC1 
 237      BCA7
 238 01eb 7820F80D 		.ascii	"x \370\015\332\370\310\216\317`\012\305\354\203\215"
 238      DAF8C88E 
 238      CF600AC5 
 238      EC838D
 239 01fa 987BF3ED 		.ascii	"\230{\363\355\357\306\354\262\227\31305\262T\"`\302"
 239      EFC6ECB2 
 239      97CB3035 
 239      B2542260 
 239      C2
 240 020b C3AFC90D 		.ascii	"\303\257\311\0154\\\203(\022\007\3517@\372\315 \003"
 240      345C8328 
 240      1207E937 
 240      40FACD20 
 240      03
 241 021c 1CA43534 		.ascii	"\034\24454\177;C\256\005\216\322T\327r*\303L\235\365"
 241      7F3B43AE 
 241      058ED254 
 241      D7722AC3 
 241      4C9DF5
 242 022f 6C703FCD 		.ascii	"lp?\315\271\357\321\251w}\323\032\261\3505{\"FM\214"
 242      B9EFD1A9 
 242      777DD31A 
 242      B1E8357B 
ARM GAS  C:\Users\prana\AppData\Local\Temp\ccFskXBz.s 			page 18


 242      22464D8C 
 243 0243 8241A3E6 		.ascii	"\202A\243\346\240\271\346\020\2579zc1\254\310\307D\315"
 243      A0B9E610 
 243      AF397A63 
 243      31ACC8C7 
 243      44CD
 244 0255 B9932DAD 		.ascii	"\271\223-\255v\035\246\376\202M\264\317A\202\006H\320"
 244      761DA6FE 
 244      824DB4CF 
 244      41820648 
 244      D0
 245 0266 0C12E220 		.ascii	"\014\022\342 \241\300\237\237\244\311\001\001\322\372"
 245      A1C09F9F 
 245      A4C90101 
 245      D2FA
 246 0274 F73F8B32 		.ascii	"\367?\2132\276\002'\016I\\6M\211SL\211\377\370x\237"
 246      BE02270E 
 246      495C364D 
 246      89534C89 
 246      FFF8789F 
 247 0288 2A4778B0 		.ascii	"*Gx\260\364K\377\271\253vP\335|\010\260O\325M\222MB"
 247      F44BFFB9 
 247      AB7650DD 
 247      7C08B04F 
 247      D54D924D 
 248 029d 18C7C0A9 		.ascii	"\030\307\300\251\217\301\347\350<\213N}\236\002b\236"
 248      8FC1E7E8 
 248      3C8B4E7D 
 248      9E02629E 
 249 02ad 8651932F 		.ascii	"\206Q\223/\014jNU\310Q\337\362\216\233\317\311prNF\002"
 249      0C6A4E55 
 249      C851DFF2 
 249      8E9BCFC9 
 249      70724E46 
 250 02c2 3F44D5A4 		.ascii	"?D\325\244o\004\270\363\304O\363\203\366\025\307\343"
 250      6F04B8F3 
 250      C44FF383 
 250      F615C7E3 
 251 02d2 2B2EF197 		.ascii	"+.\361\227\211\3618\273\324>\222\231\030\217\361\235"
 251      89F138BB 
 251      D43E9299 
 251      188FF19D 
 252 02e2 B3BD941E 		.ascii	"\263\275\224\036\306<\205\305\301\031\203\304\031\263"
 252      C63C85C5 
 252      C11983C4 
 252      19B3
 253 02f0 3EA35C9F 		.ascii	">\243\\\237\346\306\350\340ZyR\3503\363\336\322\204"
 253      E6C6E8E0 
 253      5A7952E8 
 253      33F3DED2 
 253      84
 254 0301 4D173978 		.ascii	"M\0279x\371\376w5f\300\214\231a\3069\314dmw\243,f]\301"
 254      F9FE7735 
 254      66C08C99 
 254      61C639CC 
 254      646D77A3 
 255 0319 EBAF173F 		.ascii	"\353\257\027?\236]+f=\027\257\337O\264\265\263\177]"
ARM GAS  C:\Users\prana\AppData\Local\Temp\ccFskXBz.s 			page 19


 255      9E5D2B66 
 255      3D17AFDF 
 255      4FB4B5B3 
 255      7F5D
 256 032b 4CF7783C 		.ascii	"L\367x<\323\244\274K(\037\231\236\373-]^\020\312\307"
 256      D3A4BC4B 
 256      281F999E 
 256      FB2D5D5E 
 256      10CAC7
 257 033e 1A16A6AD 		.ascii	"\032\026\246\255\011\345\353\016\321\354\355\004&\260"
 257      09E5EB0E 
 257      D1ECED04 
 257      26B0
 258 034c F7734CF9 		.ascii	"\367sL\371\213\250\274KW>\202\316\363\206\362=B\371"
 258      8BA8BC4B 
 258      573E82CE 
 258      F386F23D 
 258      42F9
 259 035e 28AA78C1 		.ascii	"(\252x\301`\353\322\225\177\375\346\261\353\026\365"
 259      60EBD295 
 259      7FFDE6B1 
 259      EB16F5
 260 036d 28937335 		.ascii	"(\223s5\230lvn\320F\213\374\273 \365\355\233\247\353"
 260      986C766E 
 260      D0468BFC 
 260      BB20F5ED 
 260      9BA7EB
 261 0380 E5C45723 		.ascii	"\345\304W#|\357\307\355\265\224\002Lb\255\313F\255K"
 261      7CEFC7ED 
 261      B594024C 
 261      62ADCB46 
 261      AD4B
 262 0392 A07F361E 		.ascii	"\240\1776\036\254q%u\215\277\356\234\177\313f{#\331"
 262      AC712575 
 262      8DBFEE9C 
 262      7FCB667B 
 262      23D9
 263 03a4 29474C24 		.ascii	")GL$\021\210\201\215\177\020\331\231\363\364\313;\012"
 263      1188818D 
 263      7F10D999 
 263      F3F4CB3B 
 263      0A
 264 03b5 8A4AF34B 		.ascii	"\212J\363K\017\224\355+-\326|[\275\025\257j\317U\225"
 264      0F94ED2B 
 264      2DD67C5B 
 264      BD15AF6A 
 264      CF5595
 265 03c8 6B69DB9E 		.ascii	"ki\333\236\1771\267(?\237X\252+*}\233\037\331\246Uj"
 265      7F31B728 
 265      3F9F58AA 
 265      2B2A7D9B 
 265      1FD9A655 
 266 03dd 5E8F4F2B 		.ascii	"^\217O+/-\256\252\366\226i%/\024W\025m*);\350;\270_"
 266      2F2DAEAA 
 266      F6966925 
 266      2F145715 
 266      6D2A293B 
ARM GAS  C:\Users\prana\AppData\Local\Temp\ccFskXBz.s 			page 20


 267 03f5 3B90F70A 		.ascii	";\220\367\012yl\205\010S\201\2742\262\316\\\357%o\205"
 267      796C8508 
 267      5381BC32 
 267      B2CE5CEF 
 267      256F85
 268 0408 4FCB327B 		.ascii	"O\3132{vi\236\362\207\226;\266z|\236]\332^\3072\252"
 268      76699EF2 
 268      87963BB6 
 268      7A7C9E5D 
 268      DA5EC732 
 269 041d 3B2A7D9A 		.ascii	";*}\232\327[\275\337\307\350Z\031\313\374'\0366\307"
 269      D75BBDDF 
 269      C7E85A19 
 269      CBFC271E 
 269      36C7
 270 042f 14EDD33C 		.ascii	"\024\355\323<\336d\024\217(,\260x\265\275\205\005\377"
 270      DE64148F 
 270      282CB078 
 270      B5BD8505 
 270      FF
 271 0440 016B7024 		.ascii	"\001kp$\324"
 271      D4
 272              		.text
 273              		.section	.gnu.lto_.symtab.b369cafa,"",%progbits
 274 0000 455A4932 		.ascii	"EZI2C_1_scl_SetDriveMode\000"
 274      435F315F 
 274      73636C5F 
 274      53657444 
 274      72697665 
 275 0019 00       		.ascii	"\000"
 276 001a 00       		.ascii	"\000"
 277 001b 00       		.ascii	"\000"
 278 001c 00000000 		.ascii	"\000\000\000\000\000\000\000\000"
 278      00000000 
 279 0024 B3000000 		.ascii	"\263\000\000\000"
 280 0028 455A4932 		.ascii	"EZI2C_1_scl_Write\000"
 280      435F315F 
 280      73636C5F 
 280      57726974 
 280      6500
 281 003a 00       		.ascii	"\000"
 282 003b 00       		.ascii	"\000"
 283 003c 00       		.ascii	"\000"
 284 003d 00000000 		.ascii	"\000\000\000\000\000\000\000\000"
 284      00000000 
 285 0045 B5000000 		.ascii	"\265\000\000\000"
 286 0049 455A4932 		.ascii	"EZI2C_1_scl_Read\000"
 286      435F315F 
 286      73636C5F 
 286      52656164 
 286      00
 287 005a 00       		.ascii	"\000"
 288 005b 00       		.ascii	"\000"
 289 005c 00       		.ascii	"\000"
 290 005d 00000000 		.ascii	"\000\000\000\000\000\000\000\000"
 290      00000000 
 291 0065 B8000000 		.ascii	"\270\000\000\000"
ARM GAS  C:\Users\prana\AppData\Local\Temp\ccFskXBz.s 			page 21


 292 0069 455A4932 		.ascii	"EZI2C_1_scl_ReadDataReg\000"
 292      435F315F 
 292      73636C5F 
 292      52656164 
 292      44617461 
 293 0081 00       		.ascii	"\000"
 294 0082 00       		.ascii	"\000"
 295 0083 00       		.ascii	"\000"
 296 0084 00000000 		.ascii	"\000\000\000\000\000\000\000\000"
 296      00000000 
 297 008c BA000000 		.ascii	"\272\000\000\000"
 298 0090 455A4932 		.ascii	"EZI2C_1_scl_SetInterruptMode\000"
 298      435F315F 
 298      73636C5F 
 298      53657449 
 298      6E746572 
 299 00ad 00       		.ascii	"\000"
 300 00ae 00       		.ascii	"\000"
 301 00af 00       		.ascii	"\000"
 302 00b0 00000000 		.ascii	"\000\000\000\000\000\000\000\000"
 302      00000000 
 303 00b8 C4000000 		.ascii	"\304\000\000\000"
 304 00bc 455A4932 		.ascii	"EZI2C_1_scl_ClearInterrupt\000"
 304      435F315F 
 304      73636C5F 
 304      436C6561 
 304      72496E74 
 305 00d7 00       		.ascii	"\000"
 306 00d8 00       		.ascii	"\000"
 307 00d9 00       		.ascii	"\000"
 308 00da 00000000 		.ascii	"\000\000\000\000\000\000\000\000"
 308      00000000 
 309 00e2 C6000000 		.ascii	"\306\000\000\000"
 310              		.text
 311              		.section	.gnu.lto_.opts,"",%progbits
 312 0000 272D666D 		.ascii	"'-fmath-errno' '-fsigned-zeros' '-ftrapping-math' '"
 312      6174682D 
 312      6572726E 
 312      6F272027 
 312      2D667369 
 313 0033 2D666E6F 		.ascii	"-fno-trapv' '-fno-openmp' '-fno-openacc' '-mcpu=cor"
 313      2D747261 
 313      70762720 
 313      272D666E 
 313      6F2D6F70 
 314 0066 7465782D 		.ascii	"tex-m0' '-mthumb' '-g' '-Os' '-Werror' '-ffunction-"
 314      6D302720 
 314      272D6D74 
 314      68756D62 
 314      2720272D 
 315 0099 73656374 		.ascii	"sections' '-ffat-lto-objects' '-finline-functions' "
 315      696F6E73 
 315      2720272D 
 315      66666174 
 315      2D6C746F 
 316 00cc 272D666C 		.ascii	"'-flto' '-fno-strict-aliasing'\000"
 316      746F2720 
ARM GAS  C:\Users\prana\AppData\Local\Temp\ccFskXBz.s 			page 22


 316      272D666E 
 316      6F2D7374 
 316      72696374 
 317              		.text
 318              		.cfi_sections	.debug_frame
 319              		.section	.text.EZI2C_1_scl_SetDriveMode,"ax",%progbits
 320              		.align	1
 321              		.global	EZI2C_1_scl_SetDriveMode
 322              		.code	16
 323              		.thumb_func
 324              		.type	EZI2C_1_scl_SetDriveMode, %function
 325              	EZI2C_1_scl_SetDriveMode:
 326              	.LFB0:
 327              		.file 1 "Generated_Source\\PSoC4\\EZI2C_1_scl.c"
   1:Generated_Source\PSoC4/EZI2C_1_scl.c **** /*******************************************************************************
   2:Generated_Source\PSoC4/EZI2C_1_scl.c **** * File Name: EZI2C_1_scl.c  
   3:Generated_Source\PSoC4/EZI2C_1_scl.c **** * Version 2.20
   4:Generated_Source\PSoC4/EZI2C_1_scl.c **** *
   5:Generated_Source\PSoC4/EZI2C_1_scl.c **** * Description:
   6:Generated_Source\PSoC4/EZI2C_1_scl.c **** *  This file contains API to enable firmware control of a Pins component.
   7:Generated_Source\PSoC4/EZI2C_1_scl.c **** *
   8:Generated_Source\PSoC4/EZI2C_1_scl.c **** ********************************************************************************
   9:Generated_Source\PSoC4/EZI2C_1_scl.c **** * Copyright 2008-2015, Cypress Semiconductor Corporation.  All rights reserved.
  10:Generated_Source\PSoC4/EZI2C_1_scl.c **** * You may use this file only in accordance with the license, terms, conditions, 
  11:Generated_Source\PSoC4/EZI2C_1_scl.c **** * disclaimers, and limitations in the end user license agreement accompanying 
  12:Generated_Source\PSoC4/EZI2C_1_scl.c **** * the software package with which this file was provided.
  13:Generated_Source\PSoC4/EZI2C_1_scl.c **** *******************************************************************************/
  14:Generated_Source\PSoC4/EZI2C_1_scl.c **** 
  15:Generated_Source\PSoC4/EZI2C_1_scl.c **** #include "cytypes.h"
  16:Generated_Source\PSoC4/EZI2C_1_scl.c **** #include "EZI2C_1_scl.h"
  17:Generated_Source\PSoC4/EZI2C_1_scl.c **** 
  18:Generated_Source\PSoC4/EZI2C_1_scl.c **** 
  19:Generated_Source\PSoC4/EZI2C_1_scl.c **** #if defined(EZI2C_1_scl__PC)
  20:Generated_Source\PSoC4/EZI2C_1_scl.c ****     #define EZI2C_1_scl_SetP4PinDriveMode(shift, mode)  \
  21:Generated_Source\PSoC4/EZI2C_1_scl.c ****     do { \
  22:Generated_Source\PSoC4/EZI2C_1_scl.c ****         EZI2C_1_scl_PC =   (EZI2C_1_scl_PC & \
  23:Generated_Source\PSoC4/EZI2C_1_scl.c ****                                 (uint32)(~(uint32)(EZI2C_1_scl_DRIVE_MODE_IND_MASK << \
  24:Generated_Source\PSoC4/EZI2C_1_scl.c ****                                 (EZI2C_1_scl_DRIVE_MODE_BITS * (shift))))) | \
  25:Generated_Source\PSoC4/EZI2C_1_scl.c ****                                 (uint32)((uint32)(mode) << \
  26:Generated_Source\PSoC4/EZI2C_1_scl.c ****                                 (EZI2C_1_scl_DRIVE_MODE_BITS * (shift))); \
  27:Generated_Source\PSoC4/EZI2C_1_scl.c ****     } while (0)
  28:Generated_Source\PSoC4/EZI2C_1_scl.c **** #else
  29:Generated_Source\PSoC4/EZI2C_1_scl.c ****     #if (CY_PSOC4_4200L)
  30:Generated_Source\PSoC4/EZI2C_1_scl.c ****         #define EZI2C_1_scl_SetP4PinDriveMode(shift, mode)  \
  31:Generated_Source\PSoC4/EZI2C_1_scl.c ****         do { \
  32:Generated_Source\PSoC4/EZI2C_1_scl.c ****             EZI2C_1_scl_USBIO_CTRL_REG = (EZI2C_1_scl_USBIO_CTRL_REG & \
  33:Generated_Source\PSoC4/EZI2C_1_scl.c ****                                     (uint32)(~(uint32)(EZI2C_1_scl_DRIVE_MODE_IND_MASK << \
  34:Generated_Source\PSoC4/EZI2C_1_scl.c ****                                     (EZI2C_1_scl_DRIVE_MODE_BITS * (shift))))) | \
  35:Generated_Source\PSoC4/EZI2C_1_scl.c ****                                     (uint32)((uint32)(mode) << \
  36:Generated_Source\PSoC4/EZI2C_1_scl.c ****                                     (EZI2C_1_scl_DRIVE_MODE_BITS * (shift))); \
  37:Generated_Source\PSoC4/EZI2C_1_scl.c ****         } while (0)
  38:Generated_Source\PSoC4/EZI2C_1_scl.c ****     #endif
  39:Generated_Source\PSoC4/EZI2C_1_scl.c **** #endif
  40:Generated_Source\PSoC4/EZI2C_1_scl.c ****   
  41:Generated_Source\PSoC4/EZI2C_1_scl.c **** 
  42:Generated_Source\PSoC4/EZI2C_1_scl.c **** #if defined(EZI2C_1_scl__PC) || (CY_PSOC4_4200L) 
  43:Generated_Source\PSoC4/EZI2C_1_scl.c ****     /*******************************************************************************
ARM GAS  C:\Users\prana\AppData\Local\Temp\ccFskXBz.s 			page 23


  44:Generated_Source\PSoC4/EZI2C_1_scl.c ****     * Function Name: EZI2C_1_scl_SetDriveMode
  45:Generated_Source\PSoC4/EZI2C_1_scl.c ****     ****************************************************************************//**
  46:Generated_Source\PSoC4/EZI2C_1_scl.c ****     *
  47:Generated_Source\PSoC4/EZI2C_1_scl.c ****     * \brief Sets the drive mode for each of the Pins component's pins.
  48:Generated_Source\PSoC4/EZI2C_1_scl.c ****     * 
  49:Generated_Source\PSoC4/EZI2C_1_scl.c ****     * <b>Note</b> This affects all pins in the Pins component instance. Use the
  50:Generated_Source\PSoC4/EZI2C_1_scl.c ****     * Per-Pin APIs if you wish to control individual pin's drive modes.
  51:Generated_Source\PSoC4/EZI2C_1_scl.c ****     *
  52:Generated_Source\PSoC4/EZI2C_1_scl.c ****     * <b>Note</b> USBIOs have limited drive functionality. Refer to the Drive Mode
  53:Generated_Source\PSoC4/EZI2C_1_scl.c ****     * parameter for more information.
  54:Generated_Source\PSoC4/EZI2C_1_scl.c ****     *
  55:Generated_Source\PSoC4/EZI2C_1_scl.c ****     * \param mode
  56:Generated_Source\PSoC4/EZI2C_1_scl.c ****     *  Mode for the selected signals. Valid options are documented in 
  57:Generated_Source\PSoC4/EZI2C_1_scl.c ****     *  \ref driveMode.
  58:Generated_Source\PSoC4/EZI2C_1_scl.c ****     *
  59:Generated_Source\PSoC4/EZI2C_1_scl.c ****     * \return
  60:Generated_Source\PSoC4/EZI2C_1_scl.c ****     *  None
  61:Generated_Source\PSoC4/EZI2C_1_scl.c ****     *
  62:Generated_Source\PSoC4/EZI2C_1_scl.c ****     * \sideeffect
  63:Generated_Source\PSoC4/EZI2C_1_scl.c ****     *  If you use read-modify-write operations that are not atomic, the ISR can
  64:Generated_Source\PSoC4/EZI2C_1_scl.c ****     *  cause corruption of this function. An ISR that interrupts this function 
  65:Generated_Source\PSoC4/EZI2C_1_scl.c ****     *  and performs writes to the Pins component Drive Mode registers can cause 
  66:Generated_Source\PSoC4/EZI2C_1_scl.c ****     *  corrupted port data. To avoid this issue, you should either use the Per-Pin
  67:Generated_Source\PSoC4/EZI2C_1_scl.c ****     *  APIs (primary method) or disable interrupts around this function.
  68:Generated_Source\PSoC4/EZI2C_1_scl.c ****     *
  69:Generated_Source\PSoC4/EZI2C_1_scl.c ****     * \funcusage
  70:Generated_Source\PSoC4/EZI2C_1_scl.c ****     *  \snippet EZI2C_1_scl_SUT.c usage_EZI2C_1_scl_SetDriveMode
  71:Generated_Source\PSoC4/EZI2C_1_scl.c ****     *******************************************************************************/
  72:Generated_Source\PSoC4/EZI2C_1_scl.c ****     void EZI2C_1_scl_SetDriveMode(uint8 mode)
  73:Generated_Source\PSoC4/EZI2C_1_scl.c ****     {
 328              		.loc 1 73 0
 329              		.cfi_startproc
 330              		@ args = 0, pretend = 0, frame = 0
 331              		@ frame_needed = 0, uses_anonymous_args = 0
 332              		@ link register save eliminated.
 333              	.LVL0:
  74:Generated_Source\PSoC4/EZI2C_1_scl.c **** 		EZI2C_1_scl_SetP4PinDriveMode(EZI2C_1_scl__0__SHIFT, mode);
 334              		.loc 1 74 0
 335 0000 034A     		ldr	r2, .L2
 336 0002 044B     		ldr	r3, .L2+4
 337 0004 1168     		ldr	r1, [r2]
 338 0006 4002     		lsls	r0, r0, #9
 339              	.LVL1:
 340 0008 0B40     		ands	r3, r1
 341 000a 1843     		orrs	r0, r3
 342 000c 1060     		str	r0, [r2]
  75:Generated_Source\PSoC4/EZI2C_1_scl.c ****     }
 343              		.loc 1 75 0
 344              		@ sp needed
 345 000e 7047     		bx	lr
 346              	.L3:
 347              		.align	2
 348              	.L2:
 349 0010 08020440 		.word	1074004488
 350 0014 FFF1FFFF 		.word	-3585
 351              		.cfi_endproc
 352              	.LFE0:
ARM GAS  C:\Users\prana\AppData\Local\Temp\ccFskXBz.s 			page 24


 353              		.size	EZI2C_1_scl_SetDriveMode, .-EZI2C_1_scl_SetDriveMode
 354              		.section	.text.EZI2C_1_scl_Write,"ax",%progbits
 355              		.align	1
 356              		.global	EZI2C_1_scl_Write
 357              		.code	16
 358              		.thumb_func
 359              		.type	EZI2C_1_scl_Write, %function
 360              	EZI2C_1_scl_Write:
 361              	.LFB1:
  76:Generated_Source\PSoC4/EZI2C_1_scl.c **** #endif
  77:Generated_Source\PSoC4/EZI2C_1_scl.c **** 
  78:Generated_Source\PSoC4/EZI2C_1_scl.c **** 
  79:Generated_Source\PSoC4/EZI2C_1_scl.c **** /*******************************************************************************
  80:Generated_Source\PSoC4/EZI2C_1_scl.c **** * Function Name: EZI2C_1_scl_Write
  81:Generated_Source\PSoC4/EZI2C_1_scl.c **** ****************************************************************************//**
  82:Generated_Source\PSoC4/EZI2C_1_scl.c **** *
  83:Generated_Source\PSoC4/EZI2C_1_scl.c **** * \brief Writes the value to the physical port (data output register), masking
  84:Generated_Source\PSoC4/EZI2C_1_scl.c **** *  and shifting the bits appropriately. 
  85:Generated_Source\PSoC4/EZI2C_1_scl.c **** *
  86:Generated_Source\PSoC4/EZI2C_1_scl.c **** * The data output register controls the signal applied to the physical pin in 
  87:Generated_Source\PSoC4/EZI2C_1_scl.c **** * conjunction with the drive mode parameter. This function avoids changing 
  88:Generated_Source\PSoC4/EZI2C_1_scl.c **** * other bits in the port by using the appropriate method (read-modify-write or
  89:Generated_Source\PSoC4/EZI2C_1_scl.c **** * bit banding).
  90:Generated_Source\PSoC4/EZI2C_1_scl.c **** *
  91:Generated_Source\PSoC4/EZI2C_1_scl.c **** * <b>Note</b> This function should not be used on a hardware digital output pin 
  92:Generated_Source\PSoC4/EZI2C_1_scl.c **** * as it is driven by the hardware signal attached to it.
  93:Generated_Source\PSoC4/EZI2C_1_scl.c **** *
  94:Generated_Source\PSoC4/EZI2C_1_scl.c **** * \param value
  95:Generated_Source\PSoC4/EZI2C_1_scl.c **** *  Value to write to the component instance.
  96:Generated_Source\PSoC4/EZI2C_1_scl.c **** *
  97:Generated_Source\PSoC4/EZI2C_1_scl.c **** * \return 
  98:Generated_Source\PSoC4/EZI2C_1_scl.c **** *  None 
  99:Generated_Source\PSoC4/EZI2C_1_scl.c **** *
 100:Generated_Source\PSoC4/EZI2C_1_scl.c **** * \sideeffect
 101:Generated_Source\PSoC4/EZI2C_1_scl.c **** *  If you use read-modify-write operations that are not atomic; the Interrupt 
 102:Generated_Source\PSoC4/EZI2C_1_scl.c **** *  Service Routines (ISR) can cause corruption of this function. An ISR that 
 103:Generated_Source\PSoC4/EZI2C_1_scl.c **** *  interrupts this function and performs writes to the Pins component data 
 104:Generated_Source\PSoC4/EZI2C_1_scl.c **** *  register can cause corrupted port data. To avoid this issue, you should 
 105:Generated_Source\PSoC4/EZI2C_1_scl.c **** *  either use the Per-Pin APIs (primary method) or disable interrupts around 
 106:Generated_Source\PSoC4/EZI2C_1_scl.c **** *  this function.
 107:Generated_Source\PSoC4/EZI2C_1_scl.c **** *
 108:Generated_Source\PSoC4/EZI2C_1_scl.c **** * \funcusage
 109:Generated_Source\PSoC4/EZI2C_1_scl.c **** *  \snippet EZI2C_1_scl_SUT.c usage_EZI2C_1_scl_Write
 110:Generated_Source\PSoC4/EZI2C_1_scl.c **** *******************************************************************************/
 111:Generated_Source\PSoC4/EZI2C_1_scl.c **** void EZI2C_1_scl_Write(uint8 value)
 112:Generated_Source\PSoC4/EZI2C_1_scl.c **** {
 362              		.loc 1 112 0
 363              		.cfi_startproc
 364              		@ args = 0, pretend = 0, frame = 0
 365              		@ frame_needed = 0, uses_anonymous_args = 0
 366              		@ link register save eliminated.
 367              	.LVL2:
 113:Generated_Source\PSoC4/EZI2C_1_scl.c ****     uint8 drVal = (uint8)(EZI2C_1_scl_DR & (uint8)(~EZI2C_1_scl_MASK));
 368              		.loc 1 113 0
 369 0000 0823     		movs	r3, #8
 370 0002 0449     		ldr	r1, .L5
 114:Generated_Source\PSoC4/EZI2C_1_scl.c ****     drVal = (drVal | ((uint8)(value << EZI2C_1_scl_SHIFT) & EZI2C_1_scl_MASK));
ARM GAS  C:\Users\prana\AppData\Local\Temp\ccFskXBz.s 			page 25


 115:Generated_Source\PSoC4/EZI2C_1_scl.c ****     EZI2C_1_scl_DR = (uint32)drVal;
 371              		.loc 1 115 0
 372 0004 C000     		lsls	r0, r0, #3
 373              	.LVL3:
 113:Generated_Source\PSoC4/EZI2C_1_scl.c ****     uint8 drVal = (uint8)(EZI2C_1_scl_DR & (uint8)(~EZI2C_1_scl_MASK));
 374              		.loc 1 113 0
 375 0006 0A68     		ldr	r2, [r1]
 116:Generated_Source\PSoC4/EZI2C_1_scl.c **** }
 376              		.loc 1 116 0
 377              		@ sp needed
 113:Generated_Source\PSoC4/EZI2C_1_scl.c ****     uint8 drVal = (uint8)(EZI2C_1_scl_DR & (uint8)(~EZI2C_1_scl_MASK));
 378              		.loc 1 113 0
 379 0008 9A43     		bics	r2, r3
 380 000a D2B2     		uxtb	r2, r2
 115:Generated_Source\PSoC4/EZI2C_1_scl.c **** }
 381              		.loc 1 115 0
 382 000c 0340     		ands	r3, r0
 383 000e 1343     		orrs	r3, r2
 384 0010 0B60     		str	r3, [r1]
 385              		.loc 1 116 0
 386 0012 7047     		bx	lr
 387              	.L6:
 388              		.align	2
 389              	.L5:
 390 0014 00020440 		.word	1074004480
 391              		.cfi_endproc
 392              	.LFE1:
 393              		.size	EZI2C_1_scl_Write, .-EZI2C_1_scl_Write
 394              		.section	.text.EZI2C_1_scl_Read,"ax",%progbits
 395              		.align	1
 396              		.global	EZI2C_1_scl_Read
 397              		.code	16
 398              		.thumb_func
 399              		.type	EZI2C_1_scl_Read, %function
 400              	EZI2C_1_scl_Read:
 401              	.LFB2:
 117:Generated_Source\PSoC4/EZI2C_1_scl.c **** 
 118:Generated_Source\PSoC4/EZI2C_1_scl.c **** 
 119:Generated_Source\PSoC4/EZI2C_1_scl.c **** /*******************************************************************************
 120:Generated_Source\PSoC4/EZI2C_1_scl.c **** * Function Name: EZI2C_1_scl_Read
 121:Generated_Source\PSoC4/EZI2C_1_scl.c **** ****************************************************************************//**
 122:Generated_Source\PSoC4/EZI2C_1_scl.c **** *
 123:Generated_Source\PSoC4/EZI2C_1_scl.c **** * \brief Reads the associated physical port (pin status register) and masks 
 124:Generated_Source\PSoC4/EZI2C_1_scl.c **** *  the required bits according to the width and bit position of the component
 125:Generated_Source\PSoC4/EZI2C_1_scl.c **** *  instance. 
 126:Generated_Source\PSoC4/EZI2C_1_scl.c **** *
 127:Generated_Source\PSoC4/EZI2C_1_scl.c **** * The pin's status register returns the current logic level present on the 
 128:Generated_Source\PSoC4/EZI2C_1_scl.c **** * physical pin.
 129:Generated_Source\PSoC4/EZI2C_1_scl.c **** *
 130:Generated_Source\PSoC4/EZI2C_1_scl.c **** * \return 
 131:Generated_Source\PSoC4/EZI2C_1_scl.c **** *  The current value for the pins in the component as a right justified number.
 132:Generated_Source\PSoC4/EZI2C_1_scl.c **** *
 133:Generated_Source\PSoC4/EZI2C_1_scl.c **** * \funcusage
 134:Generated_Source\PSoC4/EZI2C_1_scl.c **** *  \snippet EZI2C_1_scl_SUT.c usage_EZI2C_1_scl_Read  
 135:Generated_Source\PSoC4/EZI2C_1_scl.c **** *******************************************************************************/
 136:Generated_Source\PSoC4/EZI2C_1_scl.c **** uint8 EZI2C_1_scl_Read(void)
 137:Generated_Source\PSoC4/EZI2C_1_scl.c **** {
ARM GAS  C:\Users\prana\AppData\Local\Temp\ccFskXBz.s 			page 26


 402              		.loc 1 137 0
 403              		.cfi_startproc
 404              		@ args = 0, pretend = 0, frame = 0
 405              		@ frame_needed = 0, uses_anonymous_args = 0
 406              		@ link register save eliminated.
 138:Generated_Source\PSoC4/EZI2C_1_scl.c ****     return (uint8)((EZI2C_1_scl_PS & EZI2C_1_scl_MASK) >> EZI2C_1_scl_SHIFT);
 407              		.loc 1 138 0
 408 0000 024B     		ldr	r3, .L8
 139:Generated_Source\PSoC4/EZI2C_1_scl.c **** }
 409              		.loc 1 139 0
 410              		@ sp needed
 138:Generated_Source\PSoC4/EZI2C_1_scl.c ****     return (uint8)((EZI2C_1_scl_PS & EZI2C_1_scl_MASK) >> EZI2C_1_scl_SHIFT);
 411              		.loc 1 138 0
 412 0002 1868     		ldr	r0, [r3]
 413 0004 0007     		lsls	r0, r0, #28
 414 0006 C00F     		lsrs	r0, r0, #31
 415              		.loc 1 139 0
 416 0008 7047     		bx	lr
 417              	.L9:
 418 000a C046     		.align	2
 419              	.L8:
 420 000c 04020440 		.word	1074004484
 421              		.cfi_endproc
 422              	.LFE2:
 423              		.size	EZI2C_1_scl_Read, .-EZI2C_1_scl_Read
 424              		.section	.text.EZI2C_1_scl_ReadDataReg,"ax",%progbits
 425              		.align	1
 426              		.global	EZI2C_1_scl_ReadDataReg
 427              		.code	16
 428              		.thumb_func
 429              		.type	EZI2C_1_scl_ReadDataReg, %function
 430              	EZI2C_1_scl_ReadDataReg:
 431              	.LFB3:
 140:Generated_Source\PSoC4/EZI2C_1_scl.c **** 
 141:Generated_Source\PSoC4/EZI2C_1_scl.c **** 
 142:Generated_Source\PSoC4/EZI2C_1_scl.c **** /*******************************************************************************
 143:Generated_Source\PSoC4/EZI2C_1_scl.c **** * Function Name: EZI2C_1_scl_ReadDataReg
 144:Generated_Source\PSoC4/EZI2C_1_scl.c **** ****************************************************************************//**
 145:Generated_Source\PSoC4/EZI2C_1_scl.c **** *
 146:Generated_Source\PSoC4/EZI2C_1_scl.c **** * \brief Reads the associated physical port's data output register and masks 
 147:Generated_Source\PSoC4/EZI2C_1_scl.c **** *  the correct bits according to the width and bit position of the component 
 148:Generated_Source\PSoC4/EZI2C_1_scl.c **** *  instance. 
 149:Generated_Source\PSoC4/EZI2C_1_scl.c **** *
 150:Generated_Source\PSoC4/EZI2C_1_scl.c **** * The data output register controls the signal applied to the physical pin in 
 151:Generated_Source\PSoC4/EZI2C_1_scl.c **** * conjunction with the drive mode parameter. This is not the same as the 
 152:Generated_Source\PSoC4/EZI2C_1_scl.c **** * preferred EZI2C_1_scl_Read() API because the 
 153:Generated_Source\PSoC4/EZI2C_1_scl.c **** * EZI2C_1_scl_ReadDataReg() reads the data register instead of the status 
 154:Generated_Source\PSoC4/EZI2C_1_scl.c **** * register. For output pins this is a useful function to determine the value 
 155:Generated_Source\PSoC4/EZI2C_1_scl.c **** * just written to the pin.
 156:Generated_Source\PSoC4/EZI2C_1_scl.c **** *
 157:Generated_Source\PSoC4/EZI2C_1_scl.c **** * \return 
 158:Generated_Source\PSoC4/EZI2C_1_scl.c **** *  The current value of the data register masked and shifted into a right 
 159:Generated_Source\PSoC4/EZI2C_1_scl.c **** *  justified number for the component instance.
 160:Generated_Source\PSoC4/EZI2C_1_scl.c **** *
 161:Generated_Source\PSoC4/EZI2C_1_scl.c **** * \funcusage
 162:Generated_Source\PSoC4/EZI2C_1_scl.c **** *  \snippet EZI2C_1_scl_SUT.c usage_EZI2C_1_scl_ReadDataReg 
 163:Generated_Source\PSoC4/EZI2C_1_scl.c **** *******************************************************************************/
ARM GAS  C:\Users\prana\AppData\Local\Temp\ccFskXBz.s 			page 27


 164:Generated_Source\PSoC4/EZI2C_1_scl.c **** uint8 EZI2C_1_scl_ReadDataReg(void)
 165:Generated_Source\PSoC4/EZI2C_1_scl.c **** {
 432              		.loc 1 165 0
 433              		.cfi_startproc
 434              		@ args = 0, pretend = 0, frame = 0
 435              		@ frame_needed = 0, uses_anonymous_args = 0
 436              		@ link register save eliminated.
 166:Generated_Source\PSoC4/EZI2C_1_scl.c ****     return (uint8)((EZI2C_1_scl_DR & EZI2C_1_scl_MASK) >> EZI2C_1_scl_SHIFT);
 437              		.loc 1 166 0
 438 0000 024B     		ldr	r3, .L11
 167:Generated_Source\PSoC4/EZI2C_1_scl.c **** }
 439              		.loc 1 167 0
 440              		@ sp needed
 166:Generated_Source\PSoC4/EZI2C_1_scl.c ****     return (uint8)((EZI2C_1_scl_DR & EZI2C_1_scl_MASK) >> EZI2C_1_scl_SHIFT);
 441              		.loc 1 166 0
 442 0002 1868     		ldr	r0, [r3]
 443 0004 0007     		lsls	r0, r0, #28
 444 0006 C00F     		lsrs	r0, r0, #31
 445              		.loc 1 167 0
 446 0008 7047     		bx	lr
 447              	.L12:
 448 000a C046     		.align	2
 449              	.L11:
 450 000c 00020440 		.word	1074004480
 451              		.cfi_endproc
 452              	.LFE3:
 453              		.size	EZI2C_1_scl_ReadDataReg, .-EZI2C_1_scl_ReadDataReg
 454              		.section	.text.EZI2C_1_scl_SetInterruptMode,"ax",%progbits
 455              		.align	1
 456              		.global	EZI2C_1_scl_SetInterruptMode
 457              		.code	16
 458              		.thumb_func
 459              		.type	EZI2C_1_scl_SetInterruptMode, %function
 460              	EZI2C_1_scl_SetInterruptMode:
 461              	.LFB4:
 168:Generated_Source\PSoC4/EZI2C_1_scl.c **** 
 169:Generated_Source\PSoC4/EZI2C_1_scl.c **** 
 170:Generated_Source\PSoC4/EZI2C_1_scl.c **** /*******************************************************************************
 171:Generated_Source\PSoC4/EZI2C_1_scl.c **** * Function Name: EZI2C_1_scl_SetInterruptMode
 172:Generated_Source\PSoC4/EZI2C_1_scl.c **** ****************************************************************************//**
 173:Generated_Source\PSoC4/EZI2C_1_scl.c **** *
 174:Generated_Source\PSoC4/EZI2C_1_scl.c **** * \brief Configures the interrupt mode for each of the Pins component's
 175:Generated_Source\PSoC4/EZI2C_1_scl.c **** *  pins. Alternatively you may set the interrupt mode for all the pins
 176:Generated_Source\PSoC4/EZI2C_1_scl.c **** *  specified in the Pins component.
 177:Generated_Source\PSoC4/EZI2C_1_scl.c **** *
 178:Generated_Source\PSoC4/EZI2C_1_scl.c **** *  <b>Note</b> The interrupt is port-wide and therefore any enabled pin
 179:Generated_Source\PSoC4/EZI2C_1_scl.c **** *  interrupt may trigger it.
 180:Generated_Source\PSoC4/EZI2C_1_scl.c **** *
 181:Generated_Source\PSoC4/EZI2C_1_scl.c **** * \param position
 182:Generated_Source\PSoC4/EZI2C_1_scl.c **** *  The pin position as listed in the Pins component. You may OR these to be 
 183:Generated_Source\PSoC4/EZI2C_1_scl.c **** *  able to configure the interrupt mode of multiple pins within a Pins 
 184:Generated_Source\PSoC4/EZI2C_1_scl.c **** *  component. Or you may use EZI2C_1_scl_INTR_ALL to configure the
 185:Generated_Source\PSoC4/EZI2C_1_scl.c **** *  interrupt mode of all the pins in the Pins component.       
 186:Generated_Source\PSoC4/EZI2C_1_scl.c **** *  - EZI2C_1_scl_0_INTR       (First pin in the list)
 187:Generated_Source\PSoC4/EZI2C_1_scl.c **** *  - EZI2C_1_scl_1_INTR       (Second pin in the list)
 188:Generated_Source\PSoC4/EZI2C_1_scl.c **** *  - ...
 189:Generated_Source\PSoC4/EZI2C_1_scl.c **** *  - EZI2C_1_scl_INTR_ALL     (All pins in Pins component)
ARM GAS  C:\Users\prana\AppData\Local\Temp\ccFskXBz.s 			page 28


 190:Generated_Source\PSoC4/EZI2C_1_scl.c **** *
 191:Generated_Source\PSoC4/EZI2C_1_scl.c **** * \param mode
 192:Generated_Source\PSoC4/EZI2C_1_scl.c **** *  Interrupt mode for the selected pins. Valid options are documented in
 193:Generated_Source\PSoC4/EZI2C_1_scl.c **** *  \ref intrMode.
 194:Generated_Source\PSoC4/EZI2C_1_scl.c **** *
 195:Generated_Source\PSoC4/EZI2C_1_scl.c **** * \return 
 196:Generated_Source\PSoC4/EZI2C_1_scl.c **** *  None
 197:Generated_Source\PSoC4/EZI2C_1_scl.c **** *  
 198:Generated_Source\PSoC4/EZI2C_1_scl.c **** * \sideeffect
 199:Generated_Source\PSoC4/EZI2C_1_scl.c **** *  It is recommended that the interrupt be disabled before calling this 
 200:Generated_Source\PSoC4/EZI2C_1_scl.c **** *  function to avoid unintended interrupt requests. Note that the interrupt
 201:Generated_Source\PSoC4/EZI2C_1_scl.c **** *  type is port wide, and therefore will trigger for any enabled pin on the 
 202:Generated_Source\PSoC4/EZI2C_1_scl.c **** *  port.
 203:Generated_Source\PSoC4/EZI2C_1_scl.c **** *
 204:Generated_Source\PSoC4/EZI2C_1_scl.c **** * \funcusage
 205:Generated_Source\PSoC4/EZI2C_1_scl.c **** *  \snippet EZI2C_1_scl_SUT.c usage_EZI2C_1_scl_SetInterruptMode
 206:Generated_Source\PSoC4/EZI2C_1_scl.c **** *******************************************************************************/
 207:Generated_Source\PSoC4/EZI2C_1_scl.c **** void EZI2C_1_scl_SetInterruptMode(uint16 position, uint16 mode)
 208:Generated_Source\PSoC4/EZI2C_1_scl.c **** {
 462              		.loc 1 208 0
 463              		.cfi_startproc
 464              		@ args = 0, pretend = 0, frame = 0
 465              		@ frame_needed = 0, uses_anonymous_args = 0
 466              		@ link register save eliminated.
 467              	.LVL4:
 209:Generated_Source\PSoC4/EZI2C_1_scl.c ****     uint32 intrCfg;
 210:Generated_Source\PSoC4/EZI2C_1_scl.c ****     
 211:Generated_Source\PSoC4/EZI2C_1_scl.c ****     intrCfg =  EZI2C_1_scl_INTCFG & (uint32)(~(uint32)position);
 468              		.loc 1 211 0
 469 0000 034A     		ldr	r2, .L14
 212:Generated_Source\PSoC4/EZI2C_1_scl.c ****     EZI2C_1_scl_INTCFG = intrCfg | ((uint32)position & (uint32)mode);
 213:Generated_Source\PSoC4/EZI2C_1_scl.c **** }
 470              		.loc 1 213 0
 471              		@ sp needed
 211:Generated_Source\PSoC4/EZI2C_1_scl.c ****     EZI2C_1_scl_INTCFG = intrCfg | ((uint32)position & (uint32)mode);
 472              		.loc 1 211 0
 473 0002 1368     		ldr	r3, [r2]
 474              	.LVL5:
 212:Generated_Source\PSoC4/EZI2C_1_scl.c ****     EZI2C_1_scl_INTCFG = intrCfg | ((uint32)position & (uint32)mode);
 475              		.loc 1 212 0
 476 0004 8343     		bics	r3, r0
 477              	.LVL6:
 478 0006 0840     		ands	r0, r1
 479              	.LVL7:
 480 0008 1843     		orrs	r0, r3
 481 000a 1060     		str	r0, [r2]
 482              		.loc 1 213 0
 483 000c 7047     		bx	lr
 484              	.L15:
 485 000e C046     		.align	2
 486              	.L14:
 487 0010 0C020440 		.word	1074004492
 488              		.cfi_endproc
 489              	.LFE4:
 490              		.size	EZI2C_1_scl_SetInterruptMode, .-EZI2C_1_scl_SetInterruptMode
 491              		.section	.text.EZI2C_1_scl_ClearInterrupt,"ax",%progbits
 492              		.align	1
ARM GAS  C:\Users\prana\AppData\Local\Temp\ccFskXBz.s 			page 29


 493              		.global	EZI2C_1_scl_ClearInterrupt
 494              		.code	16
 495              		.thumb_func
 496              		.type	EZI2C_1_scl_ClearInterrupt, %function
 497              	EZI2C_1_scl_ClearInterrupt:
 498              	.LFB5:
 214:Generated_Source\PSoC4/EZI2C_1_scl.c **** 
 215:Generated_Source\PSoC4/EZI2C_1_scl.c **** 
 216:Generated_Source\PSoC4/EZI2C_1_scl.c **** /*******************************************************************************
 217:Generated_Source\PSoC4/EZI2C_1_scl.c **** * Function Name: EZI2C_1_scl_ClearInterrupt
 218:Generated_Source\PSoC4/EZI2C_1_scl.c **** ****************************************************************************//**
 219:Generated_Source\PSoC4/EZI2C_1_scl.c **** *
 220:Generated_Source\PSoC4/EZI2C_1_scl.c **** * \brief Clears any active interrupts attached with the component and returns 
 221:Generated_Source\PSoC4/EZI2C_1_scl.c **** *  the value of the interrupt status register allowing determination of which
 222:Generated_Source\PSoC4/EZI2C_1_scl.c **** *  pins generated an interrupt event.
 223:Generated_Source\PSoC4/EZI2C_1_scl.c **** *
 224:Generated_Source\PSoC4/EZI2C_1_scl.c **** * \return 
 225:Generated_Source\PSoC4/EZI2C_1_scl.c **** *  The right-shifted current value of the interrupt status register. Each pin 
 226:Generated_Source\PSoC4/EZI2C_1_scl.c **** *  has one bit set if it generated an interrupt event. For example, bit 0 is 
 227:Generated_Source\PSoC4/EZI2C_1_scl.c **** *  for pin 0 and bit 1 is for pin 1 of the Pins component.
 228:Generated_Source\PSoC4/EZI2C_1_scl.c **** *  
 229:Generated_Source\PSoC4/EZI2C_1_scl.c **** * \sideeffect
 230:Generated_Source\PSoC4/EZI2C_1_scl.c **** *  Clears all bits of the physical port's interrupt status register, not just
 231:Generated_Source\PSoC4/EZI2C_1_scl.c **** *  those associated with the Pins component.
 232:Generated_Source\PSoC4/EZI2C_1_scl.c **** *
 233:Generated_Source\PSoC4/EZI2C_1_scl.c **** * \funcusage
 234:Generated_Source\PSoC4/EZI2C_1_scl.c **** *  \snippet EZI2C_1_scl_SUT.c usage_EZI2C_1_scl_ClearInterrupt
 235:Generated_Source\PSoC4/EZI2C_1_scl.c **** *******************************************************************************/
 236:Generated_Source\PSoC4/EZI2C_1_scl.c **** uint8 EZI2C_1_scl_ClearInterrupt(void)
 237:Generated_Source\PSoC4/EZI2C_1_scl.c **** {
 499              		.loc 1 237 0
 500              		.cfi_startproc
 501              		@ args = 0, pretend = 0, frame = 0
 502              		@ frame_needed = 0, uses_anonymous_args = 0
 503              		@ link register save eliminated.
 238:Generated_Source\PSoC4/EZI2C_1_scl.c **** 	uint8 maskedStatus = (uint8)(EZI2C_1_scl_INTSTAT & EZI2C_1_scl_MASK);
 504              		.loc 1 238 0
 505 0000 0823     		movs	r3, #8
 506 0002 034A     		ldr	r2, .L17
 239:Generated_Source\PSoC4/EZI2C_1_scl.c **** 	EZI2C_1_scl_INTSTAT = maskedStatus;
 240:Generated_Source\PSoC4/EZI2C_1_scl.c ****     return maskedStatus >> EZI2C_1_scl_SHIFT;
 241:Generated_Source\PSoC4/EZI2C_1_scl.c **** }
 507              		.loc 1 241 0
 508              		@ sp needed
 238:Generated_Source\PSoC4/EZI2C_1_scl.c **** 	uint8 maskedStatus = (uint8)(EZI2C_1_scl_INTSTAT & EZI2C_1_scl_MASK);
 509              		.loc 1 238 0
 510 0004 1068     		ldr	r0, [r2]
 511 0006 1840     		ands	r0, r3
 512              	.LVL8:
 239:Generated_Source\PSoC4/EZI2C_1_scl.c **** 	EZI2C_1_scl_INTSTAT = maskedStatus;
 513              		.loc 1 239 0
 514 0008 1060     		str	r0, [r2]
 240:Generated_Source\PSoC4/EZI2C_1_scl.c **** }
 515              		.loc 1 240 0
 516 000a C008     		lsrs	r0, r0, #3
 517              	.LVL9:
 518 000c C0B2     		uxtb	r0, r0
ARM GAS  C:\Users\prana\AppData\Local\Temp\ccFskXBz.s 			page 30


 519              		.loc 1 241 0
 520 000e 7047     		bx	lr
 521              	.L18:
 522              		.align	2
 523              	.L17:
 524 0010 10020440 		.word	1074004496
 525              		.cfi_endproc
 526              	.LFE5:
 527              		.size	EZI2C_1_scl_ClearInterrupt, .-EZI2C_1_scl_ClearInterrupt
 528              		.text
 529              	.Letext0:
 530              		.file 2 "Generated_Source\\PSoC4\\cytypes.h"