ARM GAS  C:\Users\prana\AppData\Local\Temp\cc0fwRa9.s 			page 1


   1              		.syntax unified
   2              		.cpu cortex-m0
   3              		.fpu softvfp
   4              		.eabi_attribute 20, 1
   5              		.eabi_attribute 21, 1
   6              		.eabi_attribute 23, 3
   7              		.eabi_attribute 24, 1
   8              		.eabi_attribute 25, 1
   9              		.eabi_attribute 26, 1
  10              		.eabi_attribute 30, 4
  11              		.eabi_attribute 34, 0
  12              		.eabi_attribute 18, 4
  13              		.thumb
  14              		.syntax unified
  15              		.file	"EZI2C_1_EZI2C_INT.c"
  16              		.text
  17              	.Ltext0:
  18              		.section	.gnu.lto_.profile.b369d5e9,"",%progbits
  19 0000 789C6361 		.ascii	"x\234ca`d`c`\000\222w\031O3\002\000\005\242\001\267"
  19      60646063 
  19      60009277 
  19      194F3302 
  19      0005A201 
  20              		.text
  21              		.section	.gnu.lto_.icf.b369d5e9,"",%progbits
  22 0000 789C6361 		.ascii	"x\234ca`d\000\001>\006\004`b\350\373\366\3519\037\333"
  22      60640001 
  22      3E060460 
  22      62E8FBF6 
  22      E9391FDB 
  23 0014 99AF9736 		.ascii	"\231\257\2276s0\000\0004\273\006\325"
  23      73300000 
  23      34BB06D5 
  24              		.text
  25              		.section	.gnu.lto_.jmpfuncs.b369d5e9,"",%progbits
  26 0000 789C6361 		.ascii	"x\234ca`d\000\001y\006\004\000\21101\376eb\\\377f\347"
  26      60640001 
  26      79060400 
  26      893031FE 
  26      65625CFF 
  27 0016 4FDE2F4C 		.ascii	"O\336/L\255\314@!\306\345\2142@\361z\001\006\000\204"
  27      ADCC4021 
  27      C6E58C32 
  27      40F17A01 
  27      060084
  28 0029 B60756   		.ascii	"\266\007V"
  29              		.text
  30              		.section	.gnu.lto_.inline.b369d5e9,"",%progbits
  31 0000 789C6361 		.ascii	"x\234ca`d\000\001\025\006\004\000\212\234e|\010\244"
  31      60640001 
  31      15060400 
  31      8A9C657C 
  31      08A4
  32 0012 98BA98F7 		.ascii	"\230\272\230\367\315\346b`[ \317\004\022g\342\006\311"
  32      CDE66260 
  32      5B20CF04 
  32      1267E206 
ARM GAS  C:\Users\prana\AppData\Local\Temp\cc0fwRa9.s 			page 2


  32      C9
  33 0023 31F383D8 		.ascii	"1\363\203\330\000|\327\004\264"
  33      007CD704 
  33      B4
  34              		.text
  35              		.section	.gnu.lto_.pureconst.b369d5e9,"",%progbits
  36 0000 789C6361 		.ascii	"x\234ca`d`f`\000\222R\000\000r\000$"
  36      60646066 
  36      60009252 
  36      00007200 
  36      24
  37              		.text
  38              		.section	.gnu.lto_EZI2C_1_EZI2C_STRETCH_ISR.b369d5e9,"",%progbits
  39 0000 789C9D5A 		.ascii	"x\234\235Z\011PVG\362\177=\017\370\016P\360N\024\025"
  39      09505647 
  39      F27F3D0F 
  39      F80E50F0 
  39      4E1415
  40 0013 3954A2E2 		.ascii	"9T\242\342E<\263I6\267U\273)7\311Ves\224\345\032Lmj"
  40      453CB349 
  40      36B755BB 
  40      2937C956 
  40      657394E5 
  41 002b 4BB3C6B8 		.ascii	"K\263\306\270\376s\371q+\242`TD\343\305j\242\361\004"
  41      FE73F971 
  41      2BA26054 
  41      44E3C56A 
  41      A2F104
  42 003e 1491E0F1 		.ascii	"\024\221\340\361\211\202\027\342}\337\027\032%\006\224"
  42      898217E2 
  42      7DDF171A 
  42      250694
  43 004d 7872FCA7 		.ascii	"xr\374\247{f\336\367\370\374>\025\251\242y3\257\273"
  43      7B66DEF7 
  43      F8FC3E15 
  43      A9A27933 
  43      AFBB
  44 005f E737D33D 		.ascii	"\3477\323=\335=\363\360\321@\303\237\027\273k\332x\376"
  44      DD3DF3F0 
  44      D140C39F 
  44      17BB6BDA 
  44      78FE
  45 0071 B78E691A 		.ascii	"\267\216i\032\374I\003\226^\246i\261V\306\364\355\375"
  45      FC490396 
  45      5EA669B1 
  45      56C6F4ED 
  45      FD
  46 0082 3487DD67 		.ascii	"4\207\335gg\033\315\021\240\203\217\350\366a\276\023"
  46      671BCD11 
  46      A0838FE8 
  46      F661BE13 
  47 0092 BBF06E3B 		.ascii	"\273\360n;\322\000_\346G-+\265\374\230e\347\213\274"
  47      D2005FE6 
  47      472D2BB5 
  47      FC9865E7 
  47      8BBC
  48 00a4 65DB1EC8 		.ascii	"e\333\036\310[\026\260\011\021\253z\260\301`\361`g\376"
ARM GAS  C:\Users\prana\AppData\Local\Temp\cc0fwRa9.s 			page 3


  48      5B16B009 
  48      11AB7AB0 
  48      C160F160 
  48      67FE
  49 00b6 24164062 		.ascii	"$\026@b\376\020 \272\003X\023\352\216\244\356&\254)"
  49      FE1020BA 
  49      035813EA 
  49      8EA4EE26 
  49      AC29
  50 00c8 B53A50AB 		.ascii	"\265:P\253\251\036\234\330VsX\233\023\015\024\224\005"
  50      A91E9CD8 
  50      5673589B 
  50      130D1494 
  50      05
  51 00d9 114733E2 		.ascii	"\021G3\342\010\202\366BM3\365\320\234\265\240\367\355"
  51      0882F642 
  51      4D33F5D0 
  51      9CB5A0F7 
  51      ED
  52 00ea E87D0BD6 		.ascii	"\350}\013\326\222Z\255\250\325\022Z\011\246V\2545u\267"
  52      925AADA8 
  52      D5125A09 
  52      A656AC35 
  52      75B7
  53 00fc A1EED6D0 		.ascii	"\241\356\326\320Vt\267a\317T\266\342\335\317.\034\300"
  53      5674B761 
  53      CF54B6E2 
  53      DDCF2E1C 
  53      C0
  54 010d BB9F51DD 		.ascii	"\273\237Q\335\317\252\207\266j\220v\352!X=\264\207H"
  54      CFAA87B6 
  54      6A9076EA 
  54      21583DB4 
  54      8748
  55 011f F1D08175 		.ascii	"\361\320\201u4\315\247#\013\241V(\265B\240\223`\352"
  55      34CDA723 
  55      0BA15628 
  55      B542A093 
  55      60EA
  56 0131 0411F800 		.ascii	"\004\021\370\000\241,\214^w\242\327a\352u\270x\275\305"
  56      A12C8C5E 
  56      77A2D761 
  56      EA75B878 
  56      BDC5
  57 0143 1AC1C253 		.ascii	"\032\301\302S\267k\234\241s\202\2053tf]\210\275+\261"
  57      B76B9CA1 
  57      73828533 
  57      74665D88 
  57      BD2BB1
  58 0156 7781AE82 		.ascii	"w\201\256\202\275\253\032;\222=G\357\243\351\375s\254"
  58      BDAB1A3B 
  58      923D47EF 
  58      A3E9FD73 
  58      AC
  59 0167 1BB5A2A8 		.ascii	"\033\265\242\250\325\215u\307Y\331{\340\014\003\272"
  59      D58D75C7 
  59      59D97BE0 
ARM GAS  C:\Users\prana\AppData\Local\Temp\cc0fwRa9.s 			page 4


  59      0C03BA
  60 0176 430F21D2 		.ascii	"C\017!\322\003\242\304C\024\353I\334}\211\273'\353E"
  60      03A2C443 
  60      14EB49DC 
  60      7D89BB27 
  60      EB45
  61 0188 ADDED4EA 		.ascii	"\255\336\324\352\005}\004So\365\320\007\372\212\207"
  61      057D0453 
  61      6FF5D007 
  61      FA8A87
  62 0197 BE102D1E 		.ascii	"\276\020-\036\242\331\363\207zr\211\301\033:p\211\347"
  62      A2D9F387 
  62      7A7289C1 
  62      1B3A7089 
  62      E7
  63 01a8 A11F4DB0 		.ascii	"\241\037M\260\037\353Oz\006\220\236\3760P0\017P\017"
  63      1FEB4F7A 
  63      06909EFE 
  63      3050300F 
  63      500F
  64 01ba 03D90B62 		.ascii	"\003\331\013b\202\203h\202/\010\261?\017RN3\030\000"
  64      82836882 
  64      2F08B13F 
  64      0F524E33 
  64      1800
  65 01cc 1F1C56D0 		.ascii	"\037\034V\320&0\335\307\327\317b\265\331\375\003\232"
  65      2630DDC7 
  65      D7CF62B5 
  65      D9FD039A 
  66 01dc 340D0C6A 		.ascii	"4\015\014j\326\274E\313V\255\333<\363l\333v\301\355"
  66      D6BC45CB 
  66      56ADDB3C 
  66      F36CDB76 
  66      C1ED
  67 01ee 3B740CE9 		.ascii	";t\014\351\024\032\026\036\321\271K\327\310\347\272"
  67      141A161E 
  67      D1B94BD7 
  67      C8E7BA
  68 01fd 75EF11D5 		.ascii	"u\357\021\325\263W\357>}\243\237\357\327\177\300\300"
  68      B357EF3E 
  68      7DA39FEF 
  68      D77FC0C0 
  69 020d 17060D86 		.ascii	"\027\006\015\206\011z\204\006N\037\250\347?\201\264"
  69      097A8406 
  69      4E1FA8E7 
  69      3F81B4
  70 021c 03FA69E2 		.ascii	"\003\372i\342\347\017V\313\240(\271\274\200E.q\360\237"
  70      E70F56CB 
  70      A028B9BC 
  70      80452E71 
  70      F09F
  71 022e 73890798 		.ascii	"s\211\007\230c\251\023\022uM\253g\202\007\226@\244\306"
  71      63A91312 
  71      754DAB67 
  71      82079640 
  71      A4C6
  72 0240 D9F62764 		.ascii	"\331\366'd\317\325\253Y\242\016\340\303\233U{\346\\"
ARM GAS  C:\Users\prana\AppData\Local\Temp\cc0fwRa9.s 			page 5


  72      CFD5AB59 
  72      A20EE0C3 
  72      9B557BE6 
  72      5C
  73 0251 6C8A4D06 		.ascii	"l\212M\006!\274y\354\362\301<\273\036\005\310Y_6e\255"
  73      21BC79EC 
  73      F2C13CBB 
  73      1E05C859 
  73      5F3665AD 
  74 0265 7FC42287 		.ascii	"\177\304\"\207#\316\341\314\317\202\331\016gBH\242\256"
  74      23CEE1CC 
  74      CF82D90E 
  74      674248A2 
  74      AE
  75 0276 C332D0B9 		.ascii	"\3032\320\271R\370\031\202a)\004\223r\316=\277\254t"
  75      52F81982 
  75      61290493 
  75      72CE3DBF 
  75      AC74
  76 0288 BDBF3E98 		.ascii	"\275\277>\230$o\235}Y\312\255\215qLz\031\205Vx\024\252"
  76      246F9D7D 
  76      59CAAD8D 
  76      714C7A19 
  76      85567814 
  77 029d CCDF9BAC 		.ascii	"\314\337\233\254\353o\221\320o\267\222WY\244X\266\022"
  77      EB6F91D0 
  77      6FB79257 
  77      59A458B6 
  77      12
  78 02ae 5BE5516C 		.ascii	"[\345Qlr\365o\007,\372P\022\233r\242\274\302O\212\315"
  78      72F56F07 
  78      2CFA5012 
  78      9B72A2BC 
  78      C24F8ACD 
  79 02c2 5762D91E 		.ascii	"Wb\331\036\305~\231\272;\301\256\177@b))'s\230\024\233"
  79      C57E99BA 
  79      3BC1AE7F 
  79      40622929 
  79      27739814 
  80 02d7 ABC4723D 		.ascii	"\253\304r=\212]*L\330g\321G\222\330\246\272\031[|\245"
  80      8A5D2A4C 
  80      D867D147 
  80      92D8A6BA 
  80      195B7CA5 
  81 02eb 58A6125B 		.ascii	"X\246\022[\353Q\3141\177\365.\320?'\261\322\233\013"
  81      EB51CC31 
  81      7FF52ED0 
  81      3F27B1D2 
  81      9B0B
  82 02fd 2E2AB10C 		.ascii	".*\261\014%\266\316\243\330\205\234\272\231M\374\022"
  82      25B6CEA3 
  82      D8859CBA 
  82      994DFC12 
  83 030d D08C2193 		.ascii	"\320\214!\223t\015\362!\002\362\370\357\032\376\233"
  83      740DF221 
  83      02F2F8EF 
  83      1AFE9B
ARM GAS  C:\Users\prana\AppData\Local\Temp\cc0fwRa9.s 			page 6


  84 031c C37F57F3 		.ascii	"\303\177W\363\337\225\374w9D\010\333\302z\360\343\001"
  84      DF95FC77 
  84      394408DB 
  84      C27AF0E3 
  84      01
  85 032d D1E28959 		.ascii	"\321\342\211Y2\256~\307\351\250\257\217w8\247\267\272"
  85      32AE7EC7 
  85      E9A8AF8F 
  85      7738A7B7 
  85      BA
  86 033e 570C5B00 		.ascii	"W\014[\000\210\223\021\025R>D}\211\372\021\265\020\265"
  86      88931115 
  86      523E447D 
  86      89FA11B5 
  86      10B5
  87 0350 12B569A8 		.ascii	"\022\265i\250\325\256\241^\177\0155\007h\211\272O{N"
  87      D5AEA15E 
  87      7F0D3507 
  87      6889BA4F 
  87      7B4E
  88 0362 7C3B1047 		.ascii	"|;\020G\010\266;\321c\250\206C\206i8x8\357\366\213@"
  88      08B63BD1 
  88      63A88643 
  88      86693878 
  88      38EFF68B 
  89 0377 D2194957 		.ascii	"\322\031IWN,\221H\272!\351\216$\012_\364D\322\013\233"
  89      4E2C9148 
  89      BA21E98E 
  89      240A5FF4 
  89      44D20B9B 
  90 038b BD51511F 		.ascii	"\275QQ\037$}\261\031\215\244\037\222\376H\006\"\337"
  90      247DB119 
  90      8DA41F92 
  90      FE480622 
  90      DF
  91 039c 20242F21 		.ascii	" $/!y\031\311+H^C\362:\2227\220\274IH\336B\221!\250"
  91      7919C92B 
  91      485E43F2 
  91      3A923790 
  91      BC4948DE 
  92 03b4 EB2F9C58 		.ascii	"\353/\234X\377\212\344m\354\033J\257\377\206o\336A\362"
  92      FF8AE46D 
  92      EC1B4AAF 
  92      FF866FDE 
  92      41F2
  93 03c6 1E92BFA3 		.ascii	"\036\222\277\243\340\373\364\346\037\330\376\000\333"
  93      E0FBF4E6 
  93      1FD8FE00 
  93      DB
  94 03d3 1FD29C3F 		.ascii	"\037\322\234?\302\366\307H\206\321\354\377\211\257F"
  94      C2F6C748 
  94      86D1ECFF 
  94      89AF46
  95 03e2 201989E4 		.ascii	" \031\211\344S$\237\241\342Q\3704\032\311\347H\376\203"
  95      53249FA1 
  95      E251F834 
  95      1AC9E748 
ARM GAS  C:\Users\prana\AppData\Local\Temp\cc0fwRa9.s 			page 7


  95      FE83
  96 03f4 2263908C 		.ascii	"\"c\220\214%\271/\261s\034=\376\027\037\307#\371\012"
  96      25B92FB1 
  96      731C3DFE 
  96      171FC723 
  96      F90A
  97 0406 617D8DE4 		.ascii	"a}\215\344\033l~\213z&\020\014\007\020k,`\177\034\321"
  97      1B6C7E8B 
  97      7A26100C 
  97      07106B2C 
  97      607F1CD1 
  98 041a 24A2C944 		.ascii	"$\242\311DS\220Z&\323s*\220\211\246P\327T\352J\023]"
  98      53905A26 
  98      D3732A90 
  98      89A650D7 
  98      54EA4A13 
  99 042f E9E2CF34 		.ascii	"\351\342\3174z3\203\336\314\244\347\014\242\231Dg\013"
  99      7A3383DE 
  99      CCA4E70C 
  99      A2994467 
  99      0B
 100 0440 8F9843AF 		.ascii	"\217\230C\257\177 :\027\251\317<\242\363\211.\244\376"
 100      7F203A17 
 100      A9CF3CA2 
 100      F3892EA4 
 100      FE
 101 0451 2CA28B88 		.ascii	",\242\213\210.&\272\214\350r\242\253\211f\023\315!\251"
 101      2E26BA8C 
 101      E872A2AB 
 101      896613CD 
 101      21A9
 102 0463 5CA4D635 		.ascii	"\\\244\3265D\327\322`y\3646_\014\271\236\230\012\210"
 102      44D7D260 
 102      79F4365F 
 102      0CB99E98 
 102      0A88
 103 0475 6EA0171B 		.ascii	"n\240\027\033\211n\246\036M\253\344.\236\334F\253b\214"
 103      896EA61E 
 103      4DABE42E 
 103      9EDC46AB 
 103      628C
 104 0487 FFD1CB21 		.ascii	"\377\321\313!.#gs$\272|\274\336\236\357\226\214\304"
 104      2E236773 
 104      24BA7CBC 
 104      DE9EEF96 
 104      8CC4
 105 0499 A2BD160C 		.ascii	"\242\275\026\014_6\332g\005\005\025'-\023j\035\023\035"
 105      5F36DA67 
 105      05051527 
 105      2D136A1D 
 105      131D
 106 04ab 8E20DE37 		.ascii	"\216 \3367I\007\332S\327J\017o\263/\200y\261\016\352"
 106      4907DA53 
 106      D74A0F6F 
 106      B32F8079 
 106      B10EEA
 107 04be B7C32F30 		.ascii	"\267\303/0\001\012p\317A!,\000\355<$\234\214\037\345"
ARM GAS  C:\Users\prana\AppData\Local\Temp\cc0fwRa9.s 			page 8


 107      010A70CF 
 107      41212C00 
 107      ED3C249C 
 107      8C1FE5
 108 04d1 41AB9D83 		.ascii	"A\253\235\203\334 \367f\025\323\265)A\372U\210wN+i\212"
 108      DC20F766 
 108      15D3B529 
 108      41FA5588 
 108      774E2B69 
 109 04e6 CC1AE7E6 		.ascii	"\314\032\347\346(\375\351\245\217\302W\265}\213\257"
 109      28FDE9A5 
 109      8FC257B5 
 109      7D8BAF
 110 04f5 50156256 		.ascii	"P\025bV\025\340\001`\300$\235y\002\330\0046q\200\033"
 110      15E00160 
 110      C0249D79 
 110      02D80436 
 110      71801B
 111 0508 09E06604 		.ascii	"\011\340f\004\310\365\336L>\304\204\332N\\\263v\001"
 111      C8F5DE4C 
 111      3EC484DA 
 111      4E5CB376 
 111      01
 112 0519 A8854BC8 		.ascii	"\250\205K\310{8C\321\375\224#\263?\022\034\241\346\201"
 112      7B3843D1 
 112      FD9423B3 
 112      3F121CA1 
 112      E681
 113 052b 9BD2C05B 		.ascii	"\233\322\300[\247\325\356\223M\347\374L\007\206\376"
 113      A7D5EE93 
 113      4DE7FC4C 
 113      0786FE
 114 053a 4BE7D2F6 		.ascii	"K\347\322\366Xq\320\004>,\272j \017\015\301\340\244"
 114      5871D004 
 114      3E2CBA6A 
 114      200F0DC1 
 114      E0A4
 115 054c 618B70D8 		.ascii	"a\213p\330\013\020\347\370\230\206Y\216\303\204\212"
 115      0B10E7F8 
 115      9886598E 
 115      C3848A
 116 055b 614E3C2B 		.ascii	"aN<+F\011\343:NN\271\231`\025j\035s\205\332\3525iS\354"
 116      4609E33A 
 116      4E4EB999 
 116      60156A1D 
 116      7385DAEA 
 117 0573 0DD56E35 		.ascii	"\015\325n5\324nk\250v%\252\015\343j\343k\222\312\346"
 117      D46E6BA8 
 117      7625AA0D 
 117      E36AE36B 
 117      92CAE6
 118 0586 A483501C 		.ascii	"\244\203P\034.f\260$5y^ \352\366\203X\006\305\\\336"
 118      2E66B024 
 118      35795E20 
 118      EAF68358 
 118      06C55CDE 
 119 059a 6CA770CE 		.ascii	"l\247p\316\261\272\242\340^\023\301\241A\211a'_m\253"
ARM GAS  C:\Users\prana\AppData\Local\Temp\cc0fwRa9.s 			page 9


 119      B1BAA2E0 
 119      5E13C1A1 
 119      41896127 
 119      5F6DAB
 120 05ad BF4E50CB 		.ascii	"\277NP\313\347|#\270#0\237-\330\221k\227X\035\002\353"
 120      E77C23B8 
 120      23309F2D 
 120      D8916B97 
 120      581D02EB 
 121 05c1 2E67F64C 		.ascii	".g\366L\177\302\012\210s\273\201s\207X\365\370\032?"
 121      7FC20A88 
 121      73BB8173 
 121      8758F5F8 
 121      1A3F
 122 05d3 21DF59A8 		.ascii	"!\337Y\250H\234\262r\226]\014\210Y\330\002;97\037)\203"
 122      489CB272 
 122      965D0C88 
 122      59D8023B 
 122      39371F29 
 123 05e8 903F4AE1 		.ascii	"\220?J\341.\256\220\253!\346\234\32396\241\266\253\331"
 123      2EAE90AB 
 123      21E69CD3 
 123      3936A1B6 
 123      ABD9
 124 05fa 50560F1E 		.ascii	"PV\017\036b\235\244\353\344!\025\011\027\312H\261#\026"
 124      629DA4EB 
 124      E4211509 
 124      17CA48B1 
 124      2316
 125 060c FB83A094 		.ascii	"\373\203\240\224{\310nR\275\307\015k\244\320{\375\300"
 125      7BC86E52 
 125      BDC70D6B 
 125      A4D07BFD 
 125      C0
 126 061d 05A73FEA 		.ascii	"\005\247?\352\015\202\263\000en@\237t\230\275\3060\373"
 126      0D82B300 
 126      656E409F 
 126      7498BDC6 
 126      30FB
 127 062f 680691A4 		.ascii	"h\006\221\244e\377ii\252n\215P\265\337Pu@\"\276+\021"
 127      65FF6969 
 127      AA6E8D50 
 127      B5DF5075 
 127      4022BE2B 
 128 0644 77178A0E 		.ascii	"w\027\212\016T\226\316#\304\026\010\202\203O\011\370"
 128      5496CE23 
 128      C4160882 
 128      834F09F8 
 129 0654 9031CA61 		.ascii	"\2201\312a\002\334]8\355\355\037\306\211\261\242\270"
 129      02DC5D38 
 129      EDED1FC6 
 129      89B1A2B8 
 130 0664 D0ECDC13 		.ascii	"\320\354\334\023\235\205#L\\ \034\241x\375\351\025V"
 130      9D85234C 
 130      5C201CA1 
 130      78FDE915 
 130      56
ARM GAS  C:\Users\prana\AppData\Local\Temp\cc0fwRa9.s 			page 10


 131 0675 97DD8E18 		.ascii	"\227\335\216\030v;\252\0267i\233E(\350)t\030`\3758\330"
 131      763BAA16 
 131      37699B45 
 131      28E82974 
 131      1860FD38 
 132 068a 63C2394F 		.ascii	"c\3029O\304\257\222\353\322\323\344\216~\332\005_\021"
 132      C4AF92EB 
 132      D2D3E48E 
 132      7EDA055F 
 132      11
 133 069b 192E65F9 		.ascii	"\031.e\371\213\327\275\314vo\346\301\356\315&a\360{"
 133      8BD7BDCC 
 133      766FE6C1 
 133      EECD2661 
 133      F07B
 134 06ad 38323487 		.ascii	"824\207\023|~\307\011\332I\025\031$\260\336\\/\2663"
 134      137C7EC7 
 134      09DA4915 
 134      1924B0DE 
 134      5C2FB633 
 135 06c1 24863E8D 		.ascii	"$\206>\215\2107\247\214xs\332\010\210\233\300\320\333"
 135      8837A78C 
 135      7873DA08 
 135      889BC0D0 
 135      DB
 136 06d2 474EC5A2 		.ascii	"GN\305\242\355\365\301\235\225Qu9GN\245o#ls\306\260"
 136      EDF5C19D 
 136      95517539 
 136      474EA56F 
 136      236C73C6 
 137 06e7 CD59370F 		.ascii	"\315Y7\017\210\026\212\346\024V\357\362\025\036`\205"
 137      88168AE6 
 137      1456EFF2 
 137      151E6085 
 138 06f7 734FE901 		.ascii	"sO\351\001\347\215Q.\220\007D\023t\253\260\002\207^"
 138      E78D512E 
 138      90074413 
 138      74ABB002 
 138      875E
 139 0709 5125775F 		.ascii	"Q%w_\277F(\275h(\275\344\006\275\277PT\\\177\307\031"
 139      BF4628BD 
 139      6828BDE4 
 139      06BDBF50 
 139      545C7FC7 
 140 071e 28A033B8 		.ascii	"(\2403\270\374\224\320\313\215Q\256\020\364\376\004"
 140      FC94D0CB 
 140      8D51AE10 
 140      F4FE04
 141 072d DD66C4B3 		.ascii	"\335f\304\263\033\363\006\211A\007r\351\302\332\304"
 141      1BF30689 
 141      410772E9 
 141      C2DAC4
 142 073c 7301C28D 		.ascii	"s\001\302\215\317\311x\346\\\262i\271\356r\343\253\206"
 142      CFC978E6 
 142      5CB269B9 
 142      EE72E3AB 
 142      86
ARM GAS  C:\Users\prana\AppData\Local\Temp\cc0fwRa9.s 			page 11


 143 074d 1BFFEA16 		.ascii	"\033\377\352\026#\006\011\025\367V\3772Y:q\375\346\332"
 143      23060915 
 143      F756FF32 
 143      593A71FD 
 143      E6DA
 144 075f FA40B8E6 		.ascii	"\372@\270\346\006\334\253\302\353\204o\0202W\247W+\366"
 144      06DCABC2 
 144      EB846F10 
 144      3257A757 
 144      2BF6
 145 0771 A5E7F71D 		.ascii	"\245\347\367\035\011\024\220v\310\235u\246p\341J\223"
 145      09149076 
 145      C89D75A6 
 145      70E14A93 
 146 0781 860A43C3 		.ascii	"\206\012C\303o\\\003\355\022T\261\317P\341u'\336p\361"
 146      6F5C03ED 
 146      1254B1CF 
 146      50E17527 
 146      DE70F1
 147 0794 C75557D6 		.ascii	"\307UW\326\234\267x\\[\276q|=o\234\337\215\215S\311"
 147      9CB7785C 
 147      5BBE717C 
 147      3D6F9CDF 
 147      8D8D53C9 
 148 07a8 35993760 		.ascii	"5\2317`s\236=\252\004\020\236\335:\212\025z\351Q\321"
 148      739E3DAA 
 148      04109EDD 
 148      3A8A157A 
 148      E951D1
 149 07bb FCA69B0F 		.ascii	"\374\246\233\017\274,\3703\352&\316ab9\261~\267\302"
 149      BC2CF833 
 149      EA26CE61 
 149      6239B17E 
 149      B7C2
 150 07cd AD274D   		.ascii	"\255'M"
 151 07d0 0FD5B49C 		.ascii	"\017\325\264\234/\223\271\355\302\334\230\022\227f\312"
 151      2F93B9ED 
 151      C2DC9812 
 151      9766CA
 152 07df 3DF80A4F 		.ascii	"=\370\012O\223*\312\234\214\377Nv\232\202\214\277t\357"
 152      932ACA9C 
 152      8CFF4E76 
 152      9A828CBF 
 152      74EF
 153 07f1 EAEC92EF 		.ascii	"\352\354\222\357}\345hK\016&\225\3532\316\315\023\326"
 153      7DE5684B 
 153      0E2695EB 
 153      32CECD13 
 153      D6
 154 0802 B8BE6555 		.ascii	"\270\276eU\241\315\005\340\017\003\300m\265\272\250"
 154      A1CD05E0 
 154      0F03C06D 
 154      B5BAA8
 155 0811 2CC04050 		.ascii	",\300@Pg xM$\374\332\312}\265\001b\212v\270\343\006"
 155      6720784D 
 155      24FCDACA 
 155      7DB50162 
ARM GAS  C:\Users\prana\AppData\Local\Temp\cc0fwRa9.s 			page 12


 155      8A76B8E3 
 156 0826 E83513A0 		.ascii	"\3505\023\240&\022\320\375\2243?\217\027\257_\347\362"
 156      2612D0FD 
 156      94333F8F 
 156      17AF5FE7 
 156      F2
 157 0837 3F24FD74 		.ascii	"?$\375tX\326!\245\322C\326\335\335\275\332d\361\273"
 157      58D621A5 
 157      D243D6DD 
 157      DDBDDA64 
 157      F1BB
 158 0849 06A67B46 		.ascii	"\006\246{F\354-}FhxC(1\316\260~\340\003\367\025\210"
 158      EC2D7D46 
 158      68784328 
 158      31CEB07E 
 158      E003F715 
 159 085e 5C89F40D 		.ascii	"\\\211\364\015\023\212\246X\266\211\255\263\354{\371"
 159      138AA658 
 159      B689ADB3 
 159      EC7BF9
 160 086d FE4DAE61 		.ascii	"\376M\256a\326\322%\253d\335\342LR\345\320\224\215\201"
 160      D6D225AB 
 160      64DDE24C 
 160      52E5D094 
 160      8D81
 161 087f AA6E9905 		.ascii	"\252n\231\005T\270<0\260\324\250\302e:i\301c\030\327"
 161      54B83C30 
 161      B0D4A8C2 
 161      653A69C1 
 161      6318D7
 162 0892 44E1B6EA 		.ascii	"D\341\266\352\350\3672\002\277\325\010w\2545\334\261"
 162      E8F73202 
 162      BFD50877 
 162      AC35DCB1 
 163 08a2 0E555FE6 		.ascii	"\016U_\34631td\034_|\325w\032\244\305\362c\2403\267"
 163      33317464 
 163      1C5F7CD5 
 163      771AA4C5 
 163      F263A033 
 164 08b7 391EE335 		.ascii	"9\036\3435\207\356\207\207\275z\230\006\346\312\307"
 164      87EE8787 
 164      BD7A9806 
 164      E6CAC7
 165 08c6 42C9A3F6 		.ascii	"B\311\243\366\300\334D\253\0228\343\317\005\300\301"
 165      C0DC44AB 
 165      1238E3CF 
 165      05C0C1
 166 08d5 82B98C05 		.ascii	"\202\271\214\005eb\031\311\254\335\266=\311*d\260y\277"
 166      656219C9 
 166      ACDDB63D 
 166      C92A64B0 
 166      79BF
 167 08e7 A06A855D 		.ascii	"\240j\205]\311\334\264\243L\034\311XQ&\236\313\320\012"
 167      C9DCB4A3 
 167      4C1CC958 
 167      51269ECB 
 167      D00A
ARM GAS  C:\Users\prana\AppData\Local\Temp\cc0fwRa9.s 			page 13


 168 08f9 066A0F34 		.ascii	"\006j\0174\375\022\304\006!<|I5\370\351\\\031C\207x"
 168      FD12C406 
 168      213C7C49 
 168      35F8E95C 
 168      19438778 
 169 090d 4A329AE7 		.ascii	"J2\232\347$\223\300T\222Id*\311\324\201K\2171)\037\276"
 169      2493C054 
 169      9249642A 
 169      C9D4814B 
 169      8F31291F 
 170 0922 219398B2 		.ascii	"!\223\230\262a\220\366'\362\354\3123\337\333\244g\257"
 170      6190F627 
 170      F2ECCA33 
 170      DFDBA467 
 170      AF
 171 0933 4BBFDA4F 		.ascii	"K\277\332OX\257BF\276\251\233\226\335\012t9Q2S\206\233"
 171      58AF4246 
 171      BEA99B96 
 171      DD0A7439 
 171      51325386 
 172 0948 C8163498 		.ascii	"\310\0264\230\274\037\000Lb\301\302rg\213\232\210\341"
 172      BC1F004C 
 172      62C1C272 
 172      678B9A88 
 172      E1
 173 0959 FF628E07 		.ascii	"\377b\216\007-<$\344\026\223t\233\247YYa2\237U\012\202"
 173      2D3C24E4 
 173      1693749B 
 173      A7595961 
 173      329F550A 
 174 096e 855426FC 		.ascii	"\205T&\374u\256\214\012\177\345zEq\316\253w\345\302"
 174      75AE8C0A 
 174      7FE57A45 
 174      71CEAB77 
 174      E5C2
 175 0980 6F0BB729 		.ascii	"o\013\267)\3128\377\222\234LV\325\3544]9\336qt\274 "
 175      CA38FF92 
 175      9C4C56D5 
 175      EC345D39 
 175      DE7174BC 
 176 0995 2E2BF3C0 		.ascii	".+\363\300\024\206\201\341mT\233\221T\262B\371\370P"
 176      148681E1 
 176      6D549B91 
 176      54B242F9 
 176      F850
 177 09a7 AE978BE6 		.ascii	"\256\227\213\346%\227\346P=\252\363YM\345 \032\034\013"
 177      2597E650 
 177      3DAAF359 
 177      4DE5201A 
 177      1C0B
 178 09b9 868A495E 		.ascii	"\206\212I^\312\225\251\372o\215\260U\232a\253t9\253"
 178      CA95A9FA 
 178      6F8DB055 
 178      9A61AB74 
 178      39AB
 179 09cb 0C39AB77 		.ascii	"\0149\253w\204\242_\216\035\356\217#7\341\225\260\016"
 179      84A25F8E 
ARM GAS  C:\Users\prana\AppData\Local\Temp\cc0fwRa9.s 			page 14


 179      1DEE8F23 
 179      37E195B0 
 179      0E
 180 09dc D3E48A7A 		.ascii	"\323\344\212zNx\336\207\371\336\030f:M\364\035\262x"
 180      4E78DE87 
 180      F9DE1866 
 180      3A4DF41D 
 180      B278
 181 09ee 3369F1EC 		.ascii	"3i\361\354+\206\305\275\332w\206\260\257\221~\375\370"
 181      2B86C5BD 
 181      DA7786B0 
 181      AF917EFD 
 181      F8
 182 09ff 0ACC6422 		.ascii	"\012\314d\"\2165o\350\273\026\261\036\333\026\311\365"
 182      8E356FE8 
 182      BB16B11E 
 182      DB16C9F5 
 183 0a0f 78CF1350 		.ascii	"x\317\023P\273g\240\031\006\320Y\254a\331\365w\256\010"
 183      BB67A019 
 183      06D059AC 
 183      61D9F577 
 183      AE08
 184 0a21 7DB9CCF0 		.ascii	"}\271\314\360\3457y\247\364\335\026\312w\213\247?v&"
 184      E53779A7 
 184      F4DD16CA 
 184      778BA73F 
 184      7626
 185 0a33 995C31B9 		.ascii	"\231\\1\271&\0173\316yS{\270\014)\343L\351\364\336b"
 185      260F33CE 
 185      79537BB8 
 185      0C29E34C 
 185      E9F4DE62 
 186 0a47 807F7802 		.ascii	"\200\177x\002\356\357\031\370l\003\370\0347\340\037"
 186      EEEF19F8 
 186      6C03F81C 
 186      37E01F
 187 0a56 704502F8 		.ascii	"pE\002\370}f\000\377@\002o\251u\324M\274\037\011\020"
 187      7D6600FF 
 187      40026FA9 
 187      75D44DBC 
 187      1F0910
 188 0a69 F199D209 		.ascii	"\361\231\322\011>\346\262\274\227X[\321\034\3432\262"
 188      3EE6B2BC 
 188      97585BD1 
 188      1CE332B2 
 189 0a79 A21A69FC 		.ascii	"\242\032i\374\037\014hs\311\370\001\210fo\374\365\371"
 189      1F0C6873 
 189      C9F80188 
 189      666FFCF5 
 189      F9
 190 0a8a EF8B4102 		.ascii	"\357\213A\002\270\320\316]\263\226\006\010?\263\300"
 190      B8D0CE5D 
 190      B3960608 
 190      3FB3C0
 191 0a99 3C11136E 		.ascii	"<\021\023nB\000G\320r\356\255\273\014\303D\013\004\321"
 191      420047D0 
 191      72EEADBB 
ARM GAS  C:\Users\prana\AppData\Local\Temp\cc0fwRa9.s 			page 15


 191      0CC3440B 
 191      04D1
 192 0aab 5AE0ADAE 		.ascii	"Z\340\255\256\274\261(\260\221\205\301|\246\"\361\002"
 192      BCB128B0 
 192      9185C17C 
 192      A622F102 
 193 0abb B4409C74 		.ascii	"\264@\234t\2366\\#\325\364\213\026|\354\302cT\250>\274"
 193      9E365C23 
 193      D5F48B16 
 193      7CECC263 
 193      54A83EBC 
 194 0acf 425D68C4 		.ascii	"B]h\304\250g4\233H3G6\251-\372\317G\225OY\254a\0011"
 194      A867349B 
 194      48334736 
 194      A92DFACF 
 194      47954F59 
 195 0ae7 42F0FFFA 		.ascii	"B\360\377\372G\371\262\246\262\200p2\370\037{\302jl"
 195      47F9B2A6 
 195      B2807032 
 195      F81F7BC2 
 195      6A6C
 196 0af9 11ADDF08 		.ascii	"\021\255\337\010QJ\375\241Kv\257\245\327bfJ\366\317"
 196      514AFDA1 
 196      4B76AFA5 
 196      D762664A 
 196      F6CF
 197 0b0b 6AAD05F4 		.ascii	"j\255\005\364\373/\012,#\0375\322\217n\300?\025\374"
 197      FB2F0A2C 
 197      231F35D2 
 197      8F6EC03F 
 197      15FC
 198 0b1d 29B1155B 		.ascii	")\261\025[\003\025p\015~zR\340K\010\370\247\242\214"
 198      0315700D 
 198      7E7A52E0 
 198      4B08F8A7 
 198      A28C
 199 0b2f AC792CF0 		.ascii	"\254y,\360\245b\263\033F\360\343F\370Y\332\253\255p"
 199      A562B31B 
 199      46F0E346 
 199      F859DAAB 
 199      AD70
 200 0b41 C39BC925 		.ascii	"\303\233\311%;T\246\377Lm\035\317a\311\373!k\231\341"
 200      3B54A6FF 
 200      4C6D1DCF 
 200      61C9FB21 
 200      6B99E1
 201 0b54 12CB09E0 		.ascii	"\022\313\011\340g4B;\271\231\367\225\370<n/\257\300"
 201      6734423B 
 201      B999F795 
 201      F83C6E2F 
 201      AFC0
 202 0b66 15566128 		.ascii	"\025Va(X\205!J\342W!\301\231w\240\003] =\004\251e=\343"
 202      5885214A 
 202      E25721C1 
 202      9977A003 
 202      5D203D04 
 203 0b7e 691756B2 		.ascii	"i\027V\262\011\224\301\023\365V\244\241=\2261<,\004"
ARM GAS  C:\Users\prana\AppData\Local\Temp\cc0fwRa9.s 			page 16


 203      0994C113 
 203      F556A4A1 
 203      3D96313C 
 203      2C04
 204 0b90 69222000 		.ascii	"i\" \000-X\366\336\031\252\010\236Z\261\270J\236\005"
 204      2D58F6DE 
 204      19AA089E 
 204      5AB1B84A 
 204      9E05
 205 0ba2 9CB2AC5A 		.ascii	"\234\262\254Zsv\305E\023\266U\006\266\325\210\015\253"
 205      7376C545 
 205      13B65506 
 205      B6D5880D 
 205      AB
 206 0bb3 26BE91F8 		.ascii	"&\276\221\370\334:5\253\311Y\212\177\333i\234\004s2"
 206      DC3A35AB 
 206      C9598A7F 
 206      DB699C04 
 206      7332
 207 0bc5 3428F5F8 		.ascii	"4(\365\370%\306\327\256mE\325U\306\207\356`TQgv\251"
 207      25C6D7AE 
 207      6D45D555 
 207      C687EE60 
 207      54516776 
 208 0bda B51DF528 		.ascii	"\265\035\365(\263f3U\271UK?\031\315%\310-(\353\227K"
 208      B3663355 
 208      B9554B3F 
 208      19CD25C8 
 208      2D28EB97 
 209 0bef 25A34DA5 		.ascii	"%\243M\245ZGm=\310\262w\367z\371\376s,{g*)u \375\334"
 209      5A476D3D 
 209      C8B277F7 
 209      7AF9FE73 
 209      2C7B672A 
 210 0c08 2415A29D 		.ascii	"$\025\242\235\322\344]\317\3569\362\375\227\270\223"
 210      D2E45DCF 
 210      EE39F2FD 
 210      97B893
 211 0c17 4EC715C9 		.ascii	"N\307\025\311\223\310DY\340\305\336N[\001.\2649\306"
 211      93C84459 
 211      E0C5DE4E 
 211      5B012EB4 
 211      39C6
 212 0c29 82E41A68 		.ascii	"\202\344\032hO\311\"l\234P2}\361\252\002y\277\324\021"
 212      4FC9226C 
 212      9C50327D 
 212      F1AA0279 
 212      BFD411
 213 0c3c D698D26B 		.ascii	"\326\230\322k\016\032a\23480\324\355\031#\204\376\373"
 213      0E1A619C 
 213      3830D4ED 
 213      192384FE 
 213      FB
 214 0c4d A81559CB 		.ascii	"\250\025Y\313\032\036\300\306s\376'?m\345\221\027\216"
 214      1A1EC0C6 
 214      73FE273F 
 214      6DE59117 
ARM GAS  C:\Users\prana\AppData\Local\Temp\cc0fwRa9.s 			page 17


 214      8E
 215 0c5e A7CCB0FF 		.ascii	"\247\314\260\377`g\302\200w\374S\245\207u\302\265\343"
 215      6067C280 
 215      77FC53A5 
 215      8775C2B5 
 215      E3
 216 0c6f E67C9F5B 		.ascii	"\346|\237[0L\2323\024\315\031\302;?4\3276\334u`\035"
 216      304C9A33 
 216      14CD19C2 
 216      3B3F34D7 
 216      36DC7560 
 217 0c84 0B0E3BB5 		.ascii	"\013\016;\265\3402C\361\320\2659T9\204\244\316\313c"
 217      E03243F1 
 217      D0B53954 
 217      3984A4CE 
 217      CB63
 218 0c96 376158BC 		.ascii	"7aX\274>6\254\224\277\303=}\377\350T\253\220\261B>g"
 218      3E36AC94 
 218      BFC33D7D 
 218      FFE854AB 
 218      90B1423E 
 219 0cab 5D9CC3F5 		.ascii	"]\234\303\365\216\013)\235\265\022\235\"T\254<\317K"
 219      8E0B299D 
 219      B5129D22 
 219      54AC3CCF 
 219      4B
 220 0cbc 77B6C962 		.ascii	"w\266\311b\360?\215\010\376\353\215\340_\340V`\214\021"
 220      F03F8D08 
 220      FEEB8DE0 
 220      5FE05660 
 220      8C11
 221 0cce 8A364CCA 		.ascii	"\2126L\312*\364\027\221\377.\2570~y\312\012\243\320"
 221      2AF41791 
 221      FF2EAF30 
 221      7E79CA0A 
 221      A3D0
 222 0ce0 1867032D 		.ascii	"\030g\003-\342\030\221d\256,\031,G3E\3610-J\204\220"
 222      E2189164 
 222      AE2C192C 
 222      473345F1 
 222      302D4A84 
 223 0cf5 F2BD2A8A 		.ascii	"\362\275*\212\217E\211\006f\037KV\270\337\3020\302:"
 223      8F458906 
 223      661F4B56 
 223      B8DFC230 
 223      C23A
 224 0d07 6984706D 		.ascii	"i\204pmgSqC\275\247XV\030_5\242\216\334h\324\221\233"
 224      67537143 
 224      BDA75856 
 224      185F35A2 
 224      8EDC68D4 
 225 0d1d DCEAC8AF 		.ascii	"\334\352\310\257\271\242x\235\011wSu\3447\015\216,\320"
 225      B9A2789D 
 225      09775375 
 225      E4370D8E 
 225      2CD0
 226 0d2f F0B4B259 		.ascii	"\360\264\262Y\245\372\344R\231\300\277\345\022\242\354"
ARM GAS  C:\Users\prana\AppData\Local\Temp\cc0fwRa9.s 			page 18


 226      A5FAE452 
 226      99C0BFE5 
 226      12A2EC
 227 0d3e ECEFA9EC 		.ascii	"\354\357\251\354,\220e\347\327\262\354t\322Z}+\312\316"
 227      2C9065E7 
 227      D7B2EC74 
 227      D25A7D2B 
 227      CACE
 228 0d50 33C7D5A6 		.ascii	"3\307\325\246\237\300a<\\gN\020lu\307\316H6\007\227"
 228      9FC0613C 
 228      5C674E10 
 228      6C75C7CE 
 228      48360797 
 229 0d64 F5C7D3E6 		.ascii	"\365\307\323\346\206\354c\276\302\203\350\243%lq\337"
 229      86EC63BE 
 229      C283E8A3 
 229      256C71DF 
 230 0d74 430E71C8 		.ascii	"C\016q\310\210\320x\215&\342\033u\373k\242\261\006\033"
 230      88D0788D 
 230      26E21B75 
 230      FB6BA2B1 
 230      061B
 231 0d86 76CD14F9 		.ascii	"v\315\024\371\230\010\005\353\344H\376*\024\334\004"
 231      980805EB 
 231      E448FE2A 
 231      14DC04
 232 0d95 1EB0DEEF 		.ascii	"\036\260\336\357\304\007\236\020\276a\315\217\334\225"
 232      C4079E10 
 232      BE61CD8F 
 232      DC95
 233 0da3 EDF1FA87 		.ascii	"\355\361\372\207\330\266\207\363\343\272\177\274>\014"
 233      D8B687F3 
 233      E3BA7FBC 
 233      3E0C
 234 0db1 1B0E08AF 		.ascii	"\033\016\010\257\311\331\250\363!;\343\226\241\374^"
 234      C9D9A8F3 
 234      213BE396 
 234      A1FC5E
 235 0dc0 BFA2A750 		.ascii	"\277\242\247Pf7\305\225.F\\);!\367w,<j\213\026\271%"
 235      6637C595 
 235      2E465C29 
 235      3B21F777 
 235      2C3C6A8B 
 236 0dd7 C6389012 		.ascii	"\3068\220\022\265\013O\324\372\252K\001\006[\23745n"
 236      B50B4FD4 
 236      FAAA4B01 
 236      065B9F34 
 236      356E
 237 0de9 2313C489 		.ascii	"#\023\304\211P\237~D\035\352\275\346\306bsR\357*\202"
 237      509F7E44 
 237      1DEABDE6 
 237      C6627352 
 237      EF2A82
 238 0dfc 292F3C8F 		.ascii	")/<\217\036V\222^\023B\211\310\252\017\256\3168\016"
 238      1E56925E 
 238      134289C8 
 238      AA0FAECE 
ARM GAS  C:\Users\prana\AppData\Local\Temp\cc0fwRa9.s 			page 19


 238      380E
 239 0e0e 0268006C 		.ascii	"\002h\000l\227N\035\211W\001\246\365\327E\240<rJ\335"
 239      974E1D89 
 239      5701A6F5 
 239      D745A03C 
 239      724ADD
 240 0e21 0B244183 		.ascii	"\013$A\203\030\375\235\352u\031F\347q(@\004%h\217\221"
 240      18FD9DEA 
 240      751946E7 
 240      71284004 
 240      25688F91 
 241 0e35 A9038F4C 		.ascii	"\251\003\217L\254+p\355\317\211K\002\274h8\225-\025"
 241      AC2B70ED 
 241      CF894B02 
 241      BC683895 
 241      2D15
 242 0e47 26739650 		.ascii	"&s\226P\327]\307*\243\333d\235n2!UW\376~\370\261\013"
 242      D75DC72A 
 242      A3DB649D 
 242      6E322155 
 242      57FE7EF8 
 243 0e5d B383992E 		.ascii	"\263\203\231.\232\322\253\025\277\327\213\246\235\212"
 243      9AD2AB15 
 243      BFD78BA6 
 243      9D8A
 244 0e6b 1FF7F9D1 		.ascii	"\037\367\371\321\243t\037D_Ug\312\020\224s\247X\006"
 244      A3741F44 
 244      5F5567CA 
 244      109473A7 
 244      5806
 245 0e7d BC146844 		.ascii	"\274\024hDQ\261\313(*v\273U\342\223\001U5Lr:v\313\351"
 245      51B1CB28 
 245      2A76BB55 
 245      E2930155 
 245      354C723A 
 246 0e94 76D75228 		.ascii	"v\327R(\375;\253\216F(4|\204=Y+\312\374\304\366\262"
 246      FD3BAB8E 
 246      4628347C 
 246      843D592B 
 246      CAFCC4F6 
 247 0ea9 43A93458 		.ascii	"C\2514X\017W\251\220\207\006\263\011\203\225\237\225"
 247      0F57A990 
 247      8706B309 
 247      83959F95 
 248 0eb9 9649E563 		.ascii	"\226I\345c\331\360[\216\332\207\304\225\012\342\313"
 248      D9F05B8E 
 248      DA87C495 
 248      0AE2CB
 249 0ec8 44FD8F72 		.ascii	"D\375\217rfS\036\236\231\367k\313=L][\226\271\315l*"
 249      66531E9E 
 249      99F76BCB 
 249      3D4C5D5B 
 249      96B9CD6C 
 250 0edd A02ADA17 		.ascii	"\240*\332\027I\242\274\213\327\323@\240\230\012\015"
 250      49A2BC8B 
 250      D7D340A0 
 250      980A0D
ARM GAS  C:\Users\prana\AppData\Local\Temp\cc0fwRa9.s 			page 20


 251 0eec 31A4C924 		.ascii	"1\244\311$|\177\230\340K\007\354\343\343\335I*\232l"
 251      7C7F98E0 
 251      4B07ECE3 
 251      E3DD492A 
 251      9A6C
 252 0efe 138E7996 		.ascii	"\023\216y\226\302\310^S\030!\321t\031\355J\256\252\270"
 252      C2C85E53 
 252      1821D174 
 252      19ED4AAE 
 252      AAB8
 253 0f10 3D0D642F 		.ascii	"=\015d/\217x]\032y\013\273\317\230\316~\332\203\323"
 253      8F785D1A 
 253      790BBBCF 
 253      98CE7EDA 
 253      83D3
 254 0f22 487B7576 		.ascii	"H{uvq\271\315\243&\357G\213\003\206\311\017\242SU\211"
 254      71B9CDA3 
 254      26EF478B 
 254      0386C90F 
 254      A2535589 
 255 0f36 A2CB869E 		.ascii	"\242\313\206\236\324m\303\306Z@\253uO\335L\3714\312"
 255      D46DC3C6 
 255      5A40AB75 
 255      4FDD4CF9 
 255      34CA
 256 0f48 D80B65D7 		.ascii	"\330\013e\327\324^\230\001\342SX\376\215\345\371\262"
 256      D45E9801 
 256      E25358FE 
 256      8DE5F9B2 
 257 0f58 10E1D5F5 		.ascii	"\020\341\325\365!\346\2667f\230\367FO\27172\252\216"
 257      21E6B637 
 257      6698F746 
 257      4FB93732 
 257      AA8E
 258 0f6a E4CB3434 		.ascii	"\344\31344\2631\306<l\314\376\210[H\313\000\251\312"
 258      B331C63C 
 258      6CCCFE88 
 258      5B48CB00 
 258      A9CA
 259 0f7c F8A7110B 		.ascii	"\370\247\021\013\204\300Q\366tw\335\307\214q\216\323"
 259      84C051F6 
 259      7477DDC7 
 259      8C718ED3 
 260 0f8c 2A6780D8 		.ascii	"*g\200\330\\\247\266K\027\314l\314\346:a\254\364I#\367"
 260      5CA7B64B 
 260      17CC6CCC 
 260      E63A61AC 
 260      F44923F7 
 261 0fa0 1D92D5DC 		.ascii	"\035\222\325\334l@e\015s\326l\020\351\364\314\003y9"
 261      6C40650D 
 261      73D66C10 
 261      E9F4CC03 
 261      7939
 262 0fb2 3907473B 		.ascii	"9\007G;\224\230w^V\215\227\344\305R\325\374\305\023"
 262      9498775E 
 262      568D97E4 
 262      C552D5FC 
ARM GAS  C:\Users\prana\AppData\Local\Temp\cc0fwRa9.s 			page 21


 262      C513
 263 0fc4 5C51E294 		.ascii	"\\Q\342\224\0214O\273\025t?\000\352p\305\255\033\240"
 263      11344FBB 
 263      15743F00 
 263      EA70C5AD 
 263      1BA0
 264 0fd6 FA4DB6E9 		.ascii	"\372M\266\351%\3022\237\345\331di\233\271\017\317\322"
 264      25C2329F 
 264      E5D96469 
 264      9BB90FCF 
 264      D2
 265 0fe7 FB2DC419 		.ascii	"\373-\304\031\243\2309\353\266\321\346\2119\232\216"
 265      A39839EB 
 265      B6D1E689 
 265      399A8E
 266 0ff6 E8F30195 		.ascii	"\350\363\001\225\343\233\247\252\233\316"
 266      E39BA7AA 
 266      9BCE
 267 1000 19439D27 		.ascii	"\031C\235'\363\314\227\013VV\363\225\320\277\020\201"
 267      F3CC970B 
 267      5656F395 
 267      D0BF1081 
 268 1010 D767A415 		.ascii	"\327g\244\0253\261`\011\011b\301\034U\253jMe\366\005"
 268      33B16009 
 268      0962C11C 
 268      55AB6A4D 
 268      65F605
 269 1023 63C52EBA 		.ascii	"c\305.\272\271S\026H%Wn\254H\265\250\014\351\003\227"
 269      B9531648 
 269      25576EAC 
 269      48B5A80C 
 269      E90397
 270 1036 DC1CCAAB 		.ascii	"\334\034\312\253\302\313\004,K\000\263\013\245\213\340"
 270      C2CB042C 
 270      4B00B30B 
 270      A58BE0
 271 1045 5112E56E 		.ascii	"Q\022\345nF[\014R\"nOvIS\365a\367\001\0171W\236\024"
 271      465B0C52 
 271      226E4F76 
 271      4953F561 
 271      F7010F31 
 272 105c C45502B1 		.ascii	"\304U\002\261X\246\351\313\352@\3465\273\374\212\201"
 272      58A6E9CB 
 272      EA40E635 
 272      BBFC8A81 
 273 106c E0984CD3 		.ascii	"\340\230L\323\275U\232\336wE\011zMc\327\214c\033\027"
 273      BD559ADE 
 273      7745097A 
 273      4D63D78C 
 273      631B17
 274 107f EC6324C0 		.ascii	"\354c$\300\337f)\311\007\371\253\267\372\312\357\333"
 274      DF6629C9 
 274      07F9ABB7 
 274      FACAEFDB 
 275 108f F2BABF28 		.ascii	"\362\272\277(\277\356\232)\345_7PW\250\273&B}C\251p"
 275      BFEE9A29 
 275      E55F3750 
ARM GAS  C:\Users\prana\AppData\Local\Temp\cc0fwRa9.s 			page 22


 275      57A8BB26 
 275      427D43A9 
 276 10a4 FD4B0034 		.ascii	"\375K\0004\374w\200\337D\211\360\363\241=\327\324\367"
 276      FC7780DF 
 276      4489F0F3 
 276      A13DD7D4 
 276      F7
 277 10b5 EF8E7083 		.ascii	"\357\216p\203\311o&E2\267,C\236\232\204\314\024\220"
 277      C96F2645 
 277      32B72C43 
 277      9E9A84CC 
 277      1490
 278 10c7 DF80D47F 		.ascii	"\337\200\324\177\032d\346\377nR\373\273\001\243\322"
 278      1A64E6FF 
 278      6E52FBBB 
 278      01A3D2
 279 10d6 CD259603 		.ascii	"\315%\226\003*\241\3451/\276W\371*Z\374\345r\361o\033"
 279      2AA1E531 
 279      2FBE57F9 
 279      2A5AFCE5 
 279      72F16F1B 
 280 10ea A7616FC7 		.ascii	"\247ao\307\362\233j\332\270\206}1\340\232J\033\037\032"
 280      F29B6ADA 
 280      B8867D31 
 280      E09A4A1B 
 280      1F1A
 281 10fc B3AA6696 		.ascii	"\263\252f\226\357\343V\343\026\015\033\212\261\334\207"
 281      EFE356E3 
 281      160D1B8A 
 281      B1DC87
 282 110b 67EA28C0 		.ascii	"g\352(\300x\322'\365\316\317\030\307\243\335*&_\261"
 282      78D227F5 
 282      CECF18C7 
 282      A3DD2A26 
 282      5FB1
 283 111d 4625132F 		.ascii	"F%\023/\312\035\277\032W\311\365_\022\320\360?$\252"
 283      CA1DBF1A 
 283      57C9F55F 
 283      12D0F03F 
 283      24AA
 284 112f 5D8751B9 		.ascii	"]\207Q\271(\331\2002\256\357\034\337\251nW\211\345\313"
 284      28D98032 
 284      AEEF1CDF 
 284      A96E5789 
 284      E5CB
 285 1141 51447236 		.ascii	"QDr6\237\276XU=\257%X\3604\330\201\017\036\215\035\375"
 285      9FBE5855 
 285      3DAF2558 
 285      F034D881 
 285      0F1E8D1D 
 286 1156 B4F4320D 		.ascii	"\264\3642\015L\230\374D\250\335\236)?\212\347x\014B"
 286      4C98FC44 
 286      A8DD9E29 
 286      3F8AE778 
 286      0C42
 287 1168 5E22C31F 		.ascii	"^\"\303\037Fd\270\315\334\277\025\363\303d\222\272\244"
 287      4664B8CD 
ARM GAS  C:\Users\prana\AppData\Local\Temp\cc0fwRa9.s 			page 23


 287      DCBF15F3 
 287      C36492BA 
 287      A4
 288 1179 E3CD0ECF 		.ascii	"\343\315\016\317sP\226\027\020C\177mb\027\021\372J3"
 288      73509617 
 288      10437F6D 
 288      621711FA 
 288      4A33
 289 118b 37C899E5 		.ascii	"7\310\231\345><\254\367\363\321\035\343|t\327\355|\264"
 289      3E3CACF7 
 289      F3D11DE3 
 289      7C74D7ED 
 289      7CB4
 290 119d 06509598 		.ascii	"\006P\225\230\225\021\010\326B\2033\016\320\361f\015"
 290      951108D6 
 290      4283330E 
 290      D0F1660D 
 291 11ad C89473CF 		.ascii	"\310\224s\317\225$\244\222<@\031r\201\254h\351\000;"
 291      9524A492 
 291      3C401972 
 291      81AC68E9 
 291      003B
 292 11bf A7D516AB 		.ascii	"\247\325\026\253\257D2\272\345\304\027N\267\250S\323"
 292      AF4432BA 
 292      E5C4174E 
 292      B7A853D3 
 293 11cf 17F491E8 		.ascii	"\027\364\221\350\276\341^\017\310/\362\304i6\251l\322"
 293      BEE15E0F 
 293      C82FF2C4 
 293      6936A96C 
 293      D2
 294 11e0 A2E64277 		.ascii	"\242\346Bw>\202{\370\334\224/3\336\236L\365\311~}c\354"
 294      3E827BF8 
 294      DC942F33 
 294      DE9E4CF5 
 294      C97E7D63 
 295 11f5 5063D8A1 		.ascii	"Pc\330\241\326\355\004]\000\250\352\251/\345\353\014"
 295      D6ED045D 
 295      00A8EAA9 
 295      2FE5EB0C 
 296 1205 C5F534A1 		.ascii	"\305\3654\241\002qH\033 ,\210\367N\231\373\224\316G"
 296      0271481B 
 296      202C88F7 
 296      4E99FB94 
 296      CE47
 297 1217 AE8743A7 		.ascii	"\256\207C\247\250q0~\333^\372\\\027\010\365\000\261"
 297      A871307E 
 297      DB5EFA5C 
 297      1708F500 
 297      B1
 298 1228 BAD87E03 		.ascii	"\272\330~\003\321)\315\033\305\"\023L\312\326\266b\032"
 298      D129CD1B 
 298      C522134C 
 298      CAD6B662 
 298      1A
 299 1239 1B5078D7 		.ascii	"\033Px\327\344\331U2\303L\2246\330\272\245p\261\237"
 299      E4D95532 
ARM GAS  C:\Users\prana\AppData\Local\Temp\cc0fwRa9.s 			page 24


 299      C34C9436 
 299      D8BAA570 
 299      B19F
 300 124b 6BEFC4E9 		.ascii	"k\357\304\351j\274x\275ax\337\010\250\204nn\310K\177"
 300      6ABC78BD 
 300      6178DF08 
 300      A8846E6E 
 300      C84B7F
 301 125e 02D52F6F 		.ascii	"\002\325/o\015\271\227Z\320\016\375\347N/\011\3476\032"
 301      0DB9975A 
 301      D00EFDE7 
 301      4E2F09E7 
 301      361A
 302 1270 005A257B 		.ascii	"\000Z%{AK\335\216\241e\020n#\212\261\2073\337Qg\250"
 302      414BDD8E 
 302      A165106E 
 302      238AB187 
 302      33DF5167 
 303 1285 AB17B36D 		.ascii	"\253\027\263m2\306\312{\266\365\005\233\353LQ\"\301"
 303      32C6CA7B 
 303      B6F5059B 
 303      EB4C5122 
 303      C1
 304 1296 4093A89B 		.ascii	"@\223\250\233\"\375`\374\3670\323d\255\262`\235\274"
 304      22FD60FC 
 304      F730D364 
 304      ADB2609D 
 304      BC
 305 12a7 4862DD0C 		.ascii	"Hb\335\014\262\323\273\271\274\374\357F\222\256\314"
 305      B2D3BBB9 
 305      BCFCEF46 
 305      92AECC
 306 12b6 95ACA3B9 		.ascii	"\225\254\243\2716\203v\215\237\025j/t\245;F\232\245"
 306      3683768D 
 306      9F156A2F 
 306      74A53B46 
 306      9AA5
 307 12c8 951FBB6C 		.ascii	"\225\037\273l\342\014\306C\002_\353A8S\340\240\270\322"
 307      E20CC643 
 307      025FEB41 
 307      3853E0A0 
 307      B8D2
 308 12da 6E6FC68C 		.ascii	"no\306\214\212\0313|l\314'\303\336\035\375\345\230\021"
 308      8A19337C 
 308      6CCC27C3 
 308      DE1DFDE5 
 308      9811
 309 12ec 311F0D7D 		.ascii	"1\037\015}w\364\253\321\037\275\376\301\220>\257\016"
 309      77F4ABD1 
 309      1FBDFEC1 
 309      903EAF0E 
 310 12fc EB3D4CFC 		.ascii	"\353=L\374\035\362\366{Q#\264\200\177\217\0361d\324"
 310      1DF2F67B 
 310      5123B480 
 310      7F8F1E31 
 310      64D4
 311 130e D831EFFE 		.ascii	"\3301\357\376{\370\270\030\325xu\370\227_\304Xx\343"
ARM GAS  C:\Users\prana\AppData\Local\Temp\cc0fwRa9.s 			page 25


 311      7BF8B818 
 311      D57875F8 
 311      975FC458 
 311      78E3
 312 1320 95FF1B1B 		.ascii	"\225\377\033\033c\033\371\257\221\243\207\214\372$f"
 312      631BF9AF 
 312      91A3878C 
 312      FA2466
 313 132f BC7FCCA8 		.ascii	"\274\177\314\250O\336\0333|\324\027#c\306\330\370\333"
 313      4FDE1B33 
 313      7CD41723 
 313      63C6D8F8 
 313      DB
 314 1340 77C70E1F 		.ascii	"w\307\016\037\373\345\027V\022\342\257\377\037\032\226"
 314      FBE51756 
 314      12E2AFFF 
 314      1F1A96
 315 134f 1344     		.ascii	"\023D"
 316              		.text
 317              		.section	.gnu.lto_.symbol_nodes.b369d5e9,"",%progbits
 318 0000 789C1DCC 		.ascii	"x\234\035\314\261\031\200 \020\203\321\377\200\023\244"
 318      B1198020 
 318      1083D1FF 
 318      8013A4
 319 000f 74029DD1 		.ascii	"t\002\235\321\001`\004\347\261\266\260\262u\005k]@\270"
 319      016004E7 
 319      B1B6B0B2 
 319      75056B5D 
 319      40B8
 320 0021 34EF4B8A 		.ascii	"4\357K\212\004\204\225\026G\201\355\242\263\327\005"
 320      04849516 
 320      4781EDA2 
 320      B3D705
 321 0030 5498DBAE 		.ascii	"T\230\333\256N\014\357\214\340\015\015\306\240u\002"
 321      4E0CEF8C 
 321      E00D0DC6 
 321      A07502
 322 003f AF71B09A 		.ascii	"\257q\260\232\2421\246\216\344\"v\010\265\266\301\223"
 322      A231A68E 
 322      E4227608 
 322      B5B6C193 
 323 004f 39DE5303 		.ascii	"9\336S\003|\317-\360\003\300b\016\225"
 323      7CCF2DF0 
 323      03C0620E 
 323      95
 324              		.text
 325              		.section	.gnu.lto_.refs.b369d5e9,"",%progbits
 326 0000 789C0DC7 		.ascii	"x\234\015\3071\013AQ\030\207\361\347\177\336s\336sm"
 326      310B4151 
 326      1887F1E7 
 326      7FDE73DE 
 326      736D
 327 0012 22832432 		.ascii	"\"\203$2\335O\240\224oi4\332(1)\243\224\305\244\233"
 327      DD4FA094 
 327      6F6934DA 
 327      283129A3 
 327      94C5A49B 
ARM GAS  C:\Users\prana\AppData\Local\Temp\cc0fwRa9.s 			page 26


 328 0026 4D77B7CB 		.ascii	"Mw\267\313bp\246\347\367D\304\012\250A\"D\254+\353a"
 328      6270A6E7 
 328      F744C40A 
 328      A8412244 
 328      AC2BEB61 
 329 003a 7DD98038 		.ascii	"}\331\2008$\214\260\261l\202Me3\245\2324\307\027\344"
 329      248CB0B1 
 329      6C824D65 
 329      33A59A34 
 329      C717E4
 330 004d 257E417E 		.ascii	"%~A~\205\352\006\235{\361\003\245\006\305\026\374S\376"
 330      85EA069D 
 330      7BF103A5 
 330      06C516FC 
 330      53FE
 331 005f 0BF90771 		.ascii	"\013\371\007q-l#\331VJ\273\342}\361A\304\243\250N\222"
 331      2D6C23D9 
 331      564ABBE2 
 331      7DF141C4 
 331      A3A84E92 
 332 0073 9F853722 		.ascii	"\237\2057\"?K_\345[)\274\305\037\031\224\026U"
 332      3F4B5FE5 
 332      5B29BCC5 
 332      1F199416 
 332      55
 333              		.text
 334              		.section	.gnu.lto_.decls.b369d5e9,"",%progbits
 335 0000 789C8D56 		.ascii	"x\234\215VkL\024W\024\236\263\263laX\304RcmBR\252\021"
 335      6B4C1457 
 335      149EB3B3 
 335      6C6158C4 
 335      52636D42 
 336 0017 489BD0A2 		.ascii	"H\233\320\242\306\370\243\375Sb\205\244\261V\2204\215"
 336      C6F8A3FD 
 336      536285A4 
 336      B1569034 
 336      8D
 337 0028 095997C5 		.ascii	"\011Y\227\305\222(\230\335%)&MFXP\320\266@KyI\004\255"
 337      922898DD 
 337      2529264D 
 337      465850D0 
 337      B6404B79 
 338 003f 0805918A 		.ascii	"\010\005\221\212\240P\320\225\227\200\210\260\370\002"
 338      A050D095 
 338      978088B0 
 338      F802
 339 004d E50D2215 		.ascii	"\345\015\"\025\032\352\003\025\213\333s\357\235\335"
 339      1AEA0315 
 339      8BDB73EF 
 339      9DDD
 340 005b D9156C9D 		.ascii	"\331\025l\235\360\315\314\275\367;\337y\334sgQr\300"
 340      F0CDCCBD 
 340      F73BDF79 
 340      DC736751 
 340      72C0
 341 006d 91CBD78D 		.ascii	"\221\313\327\215\343.\343\253\022a\305K\201s\341\010"
 341      E32EE3AB 
ARM GAS  C:\Users\prana\AppData\Local\Temp\cc0fwRa9.s 			page 27


 341      1261C54B 
 341      8173E108 
 342 007d B2EACDB1 		.ascii	"\262\352\315\261\213\314\235DT#\220\316\235G4#Z\021"
 342      8BCC9D44 
 342      542390CE 
 342      9D473423 
 342      5A11
 343 008f ED880EC4 		.ascii	"\355\210\016\304U\204\005q\015q\203s\276\210\355rI\327"
 343      55840571 
 343      0D718373 
 343      BE88ED72 
 343      49D7
 344 00a1 0BB10CD1 		.ascii	"\013\261\014\321G|#j\021~\222\257n\304\035D\035\242"
 344      477C236A 
 344      117E92AF 
 344      6EC41D44 
 344      1DA2
 345 00b3 0CD18F68 		.ascii	"\014\321\217hD\214 \206\021\227\020\243\210J\304\030"
 345      448C2086 
 345      119710A3 
 345      884AC418 
 346 00c3 621C51B5 		.ascii	"b\034Q\265H\214j)\236\305\342\274\213\230@\334\373\217"
 346      488C6A29 
 346      9EC5E2BC 
 346      8B9840DC 
 346      FB8F
 347 00d5 78E71560 		.ascii	"x\347\025`\315//v\273\015\275\240\000\251P\034\000\273"
 347      CD2F2F76 
 347      BB0DBDA0 
 347      00A9501C 
 347      00BB
 348 00e7 0305C740 		.ascii	"\003\005\307@\207\370\242\240w\316>e\177p\344\3161>"
 348      87F8A2A0 
 348      77CE3E65 
 348      7F70E4CE 
 348      313E
 349 00f9 9D93C5E8 		.ascii	"\235\223\305\350\237\355i\265]TDV\007\311\010\354\021"
 349      9FED69B5 
 349      5D544456 
 349      07C908EC 
 349      11
 350 010a 302BB6AE 		.ascii	"0+\266\256\220h\034\023W\310\006\016z,\\\207\230\300"
 350      90681C13 
 350      57C8060E 
 350      7A2C5C87 
 350      98C0
 351 011c 3927B025 		.ascii	"9'\260%\335k\231\233\025x\324\304\367\301g\305\237\005"
 351      DD6B999B 
 351      1578D4C4 
 351      F7C167C5 
 351      9F05
 352 012e 948978A5 		.ascii	"\224\211x\245\211\242\342c\2712\315\326'f\317G\012\360"
 352      89A2E263 
 352      B932CDD6 
 352      2766CF47 
 352      0AF0
 353 0140 12408143 		.ascii	"\022@\201C\313LG\276;\016\227\011\260\024\207\367\317"
ARM GAS  C:\Users\prana\AppData\Local\Temp\cc0fwRa9.s 			page 28


 353      CB4C47BE 
 353      3B0E9709 
 353      B01487F7 
 353      CF
 354 0151 E7583D56 		.ascii	"\347X=V\374B\354\304D\321G\001\341\313\241\024\274\341"
 354      FC42ECC4 
 354      44D14701 
 354      E1CBA114 
 354      BCE1
 355 0163 37C00D86 		.ascii	"7\300\015\2062X\201\367\035J\246t\361\\\3651\365\312"
 355      325881F7 
 355      1D4AA674 
 355      F15CF531 
 355      F5CA
 356 0175 02B1A042 		.ascii	"\002\261\240B\034\312+|?G4'\240\225\202\260\240\030"
 356      1CCA2B7C 
 356      3F473427 
 356      A09582B0 
 356      A018
 357 0187 78288100 		.ascii	"x(\201\000\022\035\276\222\307\011\270\215a\237\204"
 357      121DBE92 
 357      C709B88D 
 357      619F84
 358 0196 95685951 		.ascii	"\225hYQ\373}\262\033\377%\015\364T\322X\211+\006\340"
 358      FB7DB21B 
 358      FF250DF4 
 358      54D25889 
 358      2B06E0
 359 01a9 2D8015C8 		.ascii	"-\200\025\310x\252\346\231\007\033\223\345\234\364\321"
 359      78AAE699 
 359      071B93E5 
 359      9CF4D1
 360 01b8 17EEFC57 		.ascii	"\027\356\374W\344]\3213Z:\251\004\177\241\210D74\237"
 360      E45DD133 
 360      5A3AA904 
 360      7FA18844 
 360      37349F
 361 01cb BC2D6B3F 		.ascii	"\274-k?\361W\011\002\374.\373\363\026\360~@\024\023"
 361      F1570902 
 361      FC2EFBF3 
 361      16F07E40 
 361      1413
 362 01dd C499A3A2 		.ascii	"\304\231\243\242j\005\007k\275\341#o\016N\203?\021%"
 362      6A05076B 
 362      BDE1236F 
 362      0E4E833F 
 362      1125
 363 01ef 2CA8C094 		.ascii	",\250\300\224NaJ\350`<\353\310}\225\022\333\217\352"
 363      4E614AE8 
 363      603CEBC8 
 363      7D9512DB 
 363      8FEA
 364 0201 606E38D7 		.ascii	"`n8\327\371s\257\005^Y\205*Z\2053 \225!\241\343\352"
 364      F973AF05 
 364      5E59852A 
 364      5A853320 
 364      9521A1E3 
ARM GAS  C:\Users\prana\AppData\Local\Temp\cc0fwRa9.s 			page 29


 365 0216 9C079661 		.ascii	"\234\007\226a\010cJo\337\371\360\264hr!\034(\227c*\247"
 365      08634A6F 
 365      DFF9F0B4 
 365      6872211C 
 365      2897632A 
 366 022b 35C0976A 		.ascii	"5\300\227j\232\177J\323\354\244\007_\0004\303nS\305"
 366      9A7F4AD3 
 366      ECA4075F 
 366      0034C36E 
 366      53C5
 367 023d 619E6D88 		.ascii	"a\236m\210\022\207\177_\311\035]\3026\304\007\207\031"
 367      12877F5F 
 367      C91D5DC2 
 367      36C40787 
 367      19
 368 024e 998927DE 		.ascii	"\231\211'\336P\247\222t\322\022E\257`Z\335\032\214\345"
 368      50A79274 
 368      D21245AF 
 368      605ADD1A 
 368      8CE5
 369 0260 1C8DA516 		.ascii	"\034\215\245\026\324\222\017\344N\217'U\272\363\265"
 369      D4920FE4 
 369      4E8F2755 
 369      BAF3B5
 370 026f 5456D154 		.ascii	"TV\321T3\231\271\004\324\376\2570\205z,\207lm+\351\027"
 370      3399B904 
 370      D4FEAF30 
 370      857A2C87 
 370      6C6D2BE9 
 371 0284 B97DA2E8 		.ascii	"\271}\242\350\003u\270\360\207\034>\362\230\207\326"
 371      0375B8F0 
 371      871C3EF2 
 371      9887D6
 372 0293 FABABDAB 		.ascii	"\372\272\275\253\217\211\005\011\342\320\221\316Oj0"
 372      8F890509 
 372      E2D091CE 
 372      4F6A30
 373 02a2 D514574A 		.ascii	"\325\024WJ>\313\310\016\221\235%)\303yX\215fO\376,?"
 373      3ECBC80E 
 373      919D2529 
 373      C379588D 
 373      664FFE2C 
 374 02b7 E3C94FB3 		.ascii	"\343\311O\263|\217\317=\237!\371\372\342\206[y\207\035"
 374      7C8FCF3D 
 374      9F21F9FA 
 374      E2865B79 
 374      871D
 375 02c9 F7653B5E 		.ascii	"\367e;^\\\330R)\360V\226\305_g.\335\362\000\301\237"
 375      5CD85229 
 375      F05696C5 
 375      5F672EDD 
 375      F200C19F 
 376 02dd EE27EE85 		.ascii	"\356'\356\205\340\317\331w\002\2320\005_iG/\342\244"
 376      E0CFD977 
 376      029A3005 
 376      5F69472F 
 376      E2A4
ARM GAS  C:\Users\prana\AppData\Local\Temp\cc0fwRa9.s 			page 30


 377 02ef 19275922 		.ascii	"\031'Y\"\377\264l\303\326\000h\304-m\220\363\360\025"
 377      FFB46CC3 
 377      D60068C4 
 377      2D6D90F3 
 377      F015
 378 0301 581AFD45 		.ascii	"X\032\375E\351=\036R\036\371\031~G*DS\222+%_\220\362"
 378      E93D1E52 
 378      1EF9197E 
 378      472A4453 
 378      922B255F 
 379 0317 9077FB02 		.ascii	"\220w\373\002\315\243\231\346\2216]\034\305\237f\007"
 379      CDA399E6 
 379      91365D1C 
 379      C59F6607 
 380 0327 EC91E9E1 		.ascii	"\354\221\351\341\015\225p\200\004\365Z}\326\372\340"
 380      0D957080 
 380      04F55A7D 
 380      D6FAE0
 381 0336 D845409F 		.ascii	"\330E@\237\277&\212\346\371:\310\022\033\366)\341\022"
 381      BF268AE6 
 381      F93AC812 
 381      1BF629E1 
 381      12
 382 0347 BA6C915C 		.ascii	"\272l\221\\2s\216\214\361\336J\035\336J3\325\271\363"
 382      32738E8C 
 382      F1DE4A1D 
 382      DE4A33D5 
 382      B9F3
 383 0359 4DCCE3C8 		.ascii	"M\314\343\310T}\231\232Em\316\213g\002\244g\333^\022"
 383      547D999A 
 383      456DCE8B 
 383      6702A467 
 383      DB5E12
 384 036c 68A302ED 		.ascii	"h\243\002\355T\340\320l\351\274\300\337d\002\335ueI"
 384      54E0D06C 
 384      E9BCC0DF 
 384      6402DD75 
 384      6549
 385 037e BC24F062 		.ascii	"\274$\360b\273)\321\225\232_~\311\37425\357\240\346"
 385      BB29D195 
 385      9A5F7EC9 
 385      FC3235EF 
 385      A0E6
 386 0390 CFCD8D3F 		.ascii	"\317\315\215?\000\177O2\037\033*t\343\237\262\201%\271"
 386      007F4F32 
 386      1F1B2A74 
 386      E39FB281 
 386      25B9
 387 03a2 A659402D 		.ascii	"\246Y@-\361(\036\376\222\275\011\211b\261\250\244%\354"
 387      F1281EFE 
 387      92BD0989 
 387      62B1A8A4 
 387      25EC
 388 03b4 443D3CE6 		.ascii	"D=<\346\016%\274B\025\257R\305\234\322\324\031O>\221"
 388      0E25BC42 
 388      15AF52C5 
 388      9CD2D419 
ARM GAS  C:\Users\prana\AppData\Local\Temp\cc0fwRa9.s 			page 31


 388      4F3E91
 389 03c7 A722D999 		.ascii	"\247\"\331\231EsK\034\233\233\324Cn\241n\332v\204X\335"
 389      45734B1C 
 389      9B9BD443 
 389      6EA16EDA 
 389      768458DD 
 390 03db 563F2045 		.ascii	"V? E^\220o\361\316\021\033LJ\262\014]\013\372\256\213"
 390      5E906FF1 
 390      CE111B4C 
 390      4AB20C5D 
 390      0BFAAE8B 
 391 03ef 3AB35067 		.ascii	":\263Pg\225w:\247T|\026s\366\270\246*\303E\312>\353"
 391      95773AA7 
 391      547C1673 
 391      F6B8A62A 
 391      C345CA3E 
 392 0404 BB6CB121 		.ascii	"\273l\261!\201\305\333\263`\313{\250\3045\326\272\331"
 392      81C5DBB3 
 392      60CB7BA8 
 392      C435D6BA 
 392      D9
 393 0415 D3456ABE 		.ascii	"\323Ej\276\224I\374\230\3225\242\224$\2625\266\236\271"
 393      9449FC98 
 393      D235A294 
 393      24B235B6 
 393      9EB9
 394 0427 BE40E03A 		.ascii	"\276@\340:\025\270A\005\372[KJI\273\373\221v\267Z=\035"
 394      15B84105 
 394      FA5B4B4A 
 394      49BBFB91 
 394      76B75A3D 
 395 043c 1ADE8F35 		.ascii	"\032\336\2175|\373\340\370\0037\376\002u\241\260\344"
 395      7CFBE0F8 
 395      0337FE02 
 395      75A1B0E4 
 396 044c 4C0DAA6C 		.ascii	"L\015\252l\015O\213\302\311g\3666\266\226\237\324Z\267"
 396      0D4F8BC2 
 396      C967F636 
 396      B6969FD4 
 396      5AB7
 397 045e 70F2A6BD 		.ascii	"p\362\246\275\341\347\223\303\331\307\260\017\003\352"
 397      E1E793C3 
 397      D9C7B00F 
 397      03EA
 398 046c 953BDE8F 		.ascii	"\225;\336\217t<\231D?\271\023\3457\235\252M\016\256"
 398      743C9944 
 398      3FB913E5 
 398      379DAA4D 
 398      0EAE
 399 047e 5CB83BAC 		.ascii	"\\\270;\254\332\344\211\344\375U\007b\035\271\215N;"
 399      DAE489E4 
 399      FD550762 
 399      1DB98D4E 
 399      3B
 400 048f D32F71FB 		.ascii	"\323/q\373)7e8\263\317\205\035\205\327\211\030-j\007"
 400      29376538 
 400      B3CF851D 
ARM GAS  C:\Users\prana\AppData\Local\Temp\cc0fwRa9.s 			page 32


 400      85D78918 
 400      2D6A07
 401 04a2 C4C32E7C 		.ascii	"\304\303.|\013K\371\372\301\263\331\274\355\263n\236"
 401      0B4BF9FA 
 401      C1B3D9BC 
 401      EDB36E9E 
 402 04b2 9F083691 		.ascii	"\237\0106\221\243;\214\016\007\345D\006@\372\254/\364"
 402      A33B8C0E 
 402      07E54406 
 402      40FAAC2F 
 402      F4
 403 04c3 31B4B88F 		.ascii	"1\264\270\217\331\247m\207\324\216)\014;\2450\"\245"
 403      D9A76D87 
 403      D48E290C 
 403      3BA53022 
 403      A5
 404 04d4 304253D8 		.ascii	"0BS\330\227W\230\341\351H\256t\"\217J\344QJ\316\235"
 404      975798E1 
 404      E948AE74 
 404      228F4AE4 
 404      514ACE9D 
 405 04e8 4CC9E51D 		.ascii	"L\311\345\035\311\335N\205\034\223\310c\224,\026\315"
 405      C9DD4E85 
 405      1C93C863 
 405      942C16CD 
 406 04f8 55BA3992 		.ascii	"U\2729\222\253\234>\340\343\022y\234\222\207\177\032"
 406      AB9C3EE0 
 406      E312799C 
 406      92877F1A 
 407 0508 3079AE2A 		.ascii	"0y\256*d?\333\251\370OI\370r\372\233\311~<\356\302*"
 407      643FDBA9 
 407      F84F49F8 
 407      72FA9BC9 
 407      7E3CEEC2 
 408 051d E41C4C7F 		.ascii	"\344\034L\177t\315\235q\206\362\352\337\256\021\273"
 408      74CD9D71 
 408      86F2EADF 
 408      AE11BB
 409 052c 963AD326 		.ascii	"\226:\323&(\355q\255\271P\305h\346\007B\252\302\231"
 409      28ED71AD 
 409      B950C568 
 409      E60742AA 
 409      C299
 410 053e 730F5671 		.ascii	"s\017Vq\357l\374:dMPD`\004{\206\206m\335\030\026\024"
 410      EF6CFC3A 
 410      644D5044 
 410      60047B86 
 410      866DDD18 
 411 0554 1C1112BA 		.ascii	"\034\021\022\272\325u\323\346m>A\201\201\334\007\233"
 411      D575D3E6 
 411      6D3E4181 
 411      81DC079B 
 412 0564 74313ABD 		.ascii	"t1:\275\306\250\213\214\010\215\215\323ku\333\267\204"
 412      C6A88B8C 
 412      088D8DD3 
 412      6B75DBB7 
 412      84
ARM GAS  C:\Users\prana\AppData\Local\Temp\cc0fwRa9.s 			page 33


 413 0575 C606ADDB 		.ascii	"\306\006\255\333\356l\031\2629,@\313\251\202\342\203"
 413      EE6C19B2 
 413      392C40CB 
 413      A982E283 
 414 0585 35BB8C2E 		.ascii	"5\273\214.q\3211\306\015\357-n\370\2416\336\030\277"
 414      71D131C6 
 414      0DEF2D6E 
 414      F8A136DE 
 414      18BF
 415 0597 476708F8 		.ascii	"Gg\010\370\206{\367\025\214\240\370\317\243w\340\272"
 415      867BF715 
 415      8CA0F8CF 
 415      A377E0BA 
 416 05a7 3D3A6D9C 		.ascii	"=:m\234\301\030\273;$\306\250\017\326\304D\356\322\351"
 416      C118BB3B 
 416      24C6A80F 
 416      D6C444EE 
 416      D2E9
 417 05b9 D5DAF868 		.ascii	"\325\332\370h\203^\023\031\251\327\031\014\253\377'"
 417      835E1319 
 417      A9D7190C 
 417      ABFF27
 418 05c8 C22DE161 		.ascii	"\302-\341a(\366\246m\030\035\023\251\373\366\323\270"
 418      28F6A66D 
 418      181D13A9 
 418      FBF6D3B8 
 419 05d8 A8401509 		.ascii	"\250@\025\0113p\375\353%\370\222\2106N\037j\324\030"
 419      3370FDEB 
 419      25F89288 
 419      364E1F6A 
 419      D418
 420 05ea E30C5EB6 		.ascii	"\343\014^\266\231\330\250(\203\316Ht\227\332\246\242"
 420      99D8A828 
 420      83CE4874 
 420      97DAA6A2 
 421 05fa 0CBB0949 		.ascii	"\014\273\011I\347\271+V\213\013\241\321{u\001\3536l"
 421      E7B92B56 
 421      8B0BA1D1 
 421      7B7501EB 
 421      366C
 422 060c 582FC8E3 		.ascii	"X/\310\343\267l\334H\215Q\203sQ:}\240}n\007\343\020"
 422      B76CDC48 
 422      8D518373 
 422      513A7DA0 
 422      7D6E07E3 
 423 0621 4DFBDC1E 		.ascii	"M\373\334\036}\254Q\2475\332\343_\273\306E\257\333\271"
 423      7DAC51A7 
 423      35DAE35F 
 423      BBC645AF 
 423      DBB9
 424 0633 76CDBFCF 		.ascii	"v\315\277\317\366_\364"
 424      F65FF4
 425              		.text
 426              		.section	.gnu.lto_.symtab.b369d5e9,"",%progbits
 427 0000 455A4932 		.ascii	"EZI2C_1_EZI2C_STRETCH_ISR\000"
 427      435F315F 
 427      455A4932 
ARM GAS  C:\Users\prana\AppData\Local\Temp\cc0fwRa9.s 			page 34


 427      435F5354 
 427      52455443 
 428 001a 00       		.ascii	"\000"
 429 001b 00       		.ascii	"\000"
 430 001c 00       		.ascii	"\000"
 431 001d 00000000 		.ascii	"\000\000\000\000\000\000\000\000"
 431      00000000 
 432 0025 AD000000 		.ascii	"\255\000\000\000"
 433 0029 455A4932 		.ascii	"EZI2C_1_customIntrHandler\000"
 433      435F315F 
 433      63757374 
 433      6F6D496E 
 433      74724861 
 434 0043 00       		.ascii	"\000"
 435 0044 02       		.ascii	"\002"
 436 0045 00       		.ascii	"\000"
 437 0046 00000000 		.ascii	"\000\000\000\000\000\000\000\000"
 437      00000000 
 438 004e BE000000 		.ascii	"\276\000\000\000"
 439 0052 455A4932 		.ascii	"EZI2C_1_indexBuf1\000"
 439      435F315F 
 439      696E6465 
 439      78427566 
 439      3100
 440 0064 00       		.ascii	"\000"
 441 0065 02       		.ascii	"\002"
 442 0066 00       		.ascii	"\000"
 443 0067 00000000 		.ascii	"\000\000\000\000\000\000\000\000"
 443      00000000 
 444 006f C5000000 		.ascii	"\305\000\000\000"
 445 0073 455A4932 		.ascii	"EZI2C_1_curStatus\000"
 445      435F315F 
 445      63757253 
 445      74617475 
 445      7300
 446 0085 00       		.ascii	"\000"
 447 0086 02       		.ascii	"\002"
 448 0087 00       		.ascii	"\000"
 449 0088 00000000 		.ascii	"\000\000\000\000\000\000\000\000"
 449      00000000 
 450 0090 C8000000 		.ascii	"\310\000\000\000"
 451 0094 455A4932 		.ascii	"EZI2C_1_offsetBuf1\000"
 451      435F315F 
 451      6F666673 
 451      65744275 
 451      663100
 452 00a7 00       		.ascii	"\000"
 453 00a8 02       		.ascii	"\002"
 454 00a9 00       		.ascii	"\000"
 455 00aa 00000000 		.ascii	"\000\000\000\000\000\000\000\000"
 455      00000000 
 456 00b2 CA000000 		.ascii	"\312\000\000\000"
 457 00b6 455A4932 		.ascii	"EZI2C_1_fsmState\000"
 457      435F315F 
 457      66736D53 
 457      74617465 
 457      00
ARM GAS  C:\Users\prana\AppData\Local\Temp\cc0fwRa9.s 			page 35


 458 00c7 00       		.ascii	"\000"
 459 00c8 02       		.ascii	"\002"
 460 00c9 00       		.ascii	"\000"
 461 00ca 00000000 		.ascii	"\000\000\000\000\000\000\000\000"
 461      00000000 
 462 00d2 CC000000 		.ascii	"\314\000\000\000"
 463 00d6 455A4932 		.ascii	"EZI2C_1_dataBuffer1\000"
 463      435F315F 
 463      64617461 
 463      42756666 
 463      65723100 
 464 00ea 00       		.ascii	"\000"
 465 00eb 02       		.ascii	"\002"
 466 00ec 00       		.ascii	"\000"
 467 00ed 00000000 		.ascii	"\000\000\000\000\000\000\000\000"
 467      00000000 
 468 00f5 D2000000 		.ascii	"\322\000\000\000"
 469 00f9 455A4932 		.ascii	"EZI2C_1_bufSizeBuf1\000"
 469      435F315F 
 469      62756653 
 469      697A6542 
 469      75663100 
 470 010d 00       		.ascii	"\000"
 471 010e 02       		.ascii	"\002"
 472 010f 00       		.ascii	"\000"
 473 0110 00000000 		.ascii	"\000\000\000\000\000\000\000\000"
 473      00000000 
 474 0118 D4000000 		.ascii	"\324\000\000\000"
 475 011c 455A4932 		.ascii	"EZI2C_1_protectBuf1\000"
 475      435F315F 
 475      70726F74 
 475      65637442 
 475      75663100 
 476 0130 00       		.ascii	"\000"
 477 0131 02       		.ascii	"\002"
 478 0132 00       		.ascii	"\000"
 479 0133 00000000 		.ascii	"\000\000\000\000\000\000\000\000"
 479      00000000 
 480 013b D6000000 		.ascii	"\326\000\000\000"
 481 013f 43794861 		.ascii	"CyHalt\000"
 481      6C7400
 482 0146 00       		.ascii	"\000"
 483 0147 02       		.ascii	"\002"
 484 0148 00       		.ascii	"\000"
 485 0149 00000000 		.ascii	"\000\000\000\000\000\000\000\000"
 485      00000000 
 486 0151 B6000000 		.ascii	"\266\000\000\000"
 487              		.text
 488              		.section	.gnu.lto_.opts,"",%progbits
 489 0000 272D666D 		.ascii	"'-fmath-errno' '-fsigned-zeros' '-ftrapping-math' '"
 489      6174682D 
 489      6572726E 
 489      6F272027 
 489      2D667369 
 490 0033 2D666E6F 		.ascii	"-fno-trapv' '-fno-openmp' '-fno-openacc' '-mcpu=cor"
 490      2D747261 
 490      70762720 
ARM GAS  C:\Users\prana\AppData\Local\Temp\cc0fwRa9.s 			page 36


 490      272D666E 
 490      6F2D6F70 
 491 0066 7465782D 		.ascii	"tex-m0' '-mthumb' '-g' '-Os' '-Werror' '-ffunction-"
 491      6D302720 
 491      272D6D74 
 491      68756D62 
 491      2720272D 
 492 0099 73656374 		.ascii	"sections' '-ffat-lto-objects' '-finline-functions' "
 492      696F6E73 
 492      2720272D 
 492      66666174 
 492      2D6C746F 
 493 00cc 272D666C 		.ascii	"'-flto' '-fno-strict-aliasing'\000"
 493      746F2720 
 493      272D666E 
 493      6F2D7374 
 493      72696374 
 494              		.text
 495              		.cfi_sections	.debug_frame
 496              		.section	.text.EZI2C_1_EZI2C_STRETCH_ISR,"ax",%progbits
 497              		.align	1
 498              		.global	EZI2C_1_EZI2C_STRETCH_ISR
 499              		.code	16
 500              		.thumb_func
 501              		.type	EZI2C_1_EZI2C_STRETCH_ISR, %function
 502              	EZI2C_1_EZI2C_STRETCH_ISR:
 503              	.LFB0:
 504              		.file 1 "Generated_Source\\PSoC4\\EZI2C_1_EZI2C_INT.c"
   1:Generated_Source\PSoC4/EZI2C_1_EZI2C_INT.c **** /***************************************************************************//**
   2:Generated_Source\PSoC4/EZI2C_1_EZI2C_INT.c **** * \file EZI2C_1_EZI2C_INT.c
   3:Generated_Source\PSoC4/EZI2C_1_EZI2C_INT.c **** * \version 4.0
   4:Generated_Source\PSoC4/EZI2C_1_EZI2C_INT.c **** *
   5:Generated_Source\PSoC4/EZI2C_1_EZI2C_INT.c **** * \brief
   6:Generated_Source\PSoC4/EZI2C_1_EZI2C_INT.c **** *  This file provides the source code to the Interrupt Service Routine for
   7:Generated_Source\PSoC4/EZI2C_1_EZI2C_INT.c **** *  the SCB Component in EZI2C mode.
   8:Generated_Source\PSoC4/EZI2C_1_EZI2C_INT.c **** *
   9:Generated_Source\PSoC4/EZI2C_1_EZI2C_INT.c **** * Note:
  10:Generated_Source\PSoC4/EZI2C_1_EZI2C_INT.c **** *
  11:Generated_Source\PSoC4/EZI2C_1_EZI2C_INT.c **** ********************************************************************************
  12:Generated_Source\PSoC4/EZI2C_1_EZI2C_INT.c **** * \copyright
  13:Generated_Source\PSoC4/EZI2C_1_EZI2C_INT.c **** * Copyright 2013-2017, Cypress Semiconductor Corporation.  All rights reserved.
  14:Generated_Source\PSoC4/EZI2C_1_EZI2C_INT.c **** * You may use this file only in accordance with the license, terms, conditions,
  15:Generated_Source\PSoC4/EZI2C_1_EZI2C_INT.c **** * disclaimers, and limitations in the end user license agreement accompanying
  16:Generated_Source\PSoC4/EZI2C_1_EZI2C_INT.c **** * the software package with which this file was provided.
  17:Generated_Source\PSoC4/EZI2C_1_EZI2C_INT.c **** *******************************************************************************/
  18:Generated_Source\PSoC4/EZI2C_1_EZI2C_INT.c **** 
  19:Generated_Source\PSoC4/EZI2C_1_EZI2C_INT.c **** #include "EZI2C_1_PVT.h"
  20:Generated_Source\PSoC4/EZI2C_1_EZI2C_INT.c **** #include "EZI2C_1_EZI2C_PVT.h"
  21:Generated_Source\PSoC4/EZI2C_1_EZI2C_INT.c **** #include "cyapicallbacks.h"
  22:Generated_Source\PSoC4/EZI2C_1_EZI2C_INT.c **** 
  23:Generated_Source\PSoC4/EZI2C_1_EZI2C_INT.c **** #if(EZI2C_1_EZI2C_SCL_STRETCH_ENABLE_CONST)
  24:Generated_Source\PSoC4/EZI2C_1_EZI2C_INT.c ****     /*******************************************************************************
  25:Generated_Source\PSoC4/EZI2C_1_EZI2C_INT.c ****     * Function Name: EZI2C_1_EZI2C_STRETCH_ISR
  26:Generated_Source\PSoC4/EZI2C_1_EZI2C_INT.c ****     ****************************************************************************//**
  27:Generated_Source\PSoC4/EZI2C_1_EZI2C_INT.c ****     *
  28:Generated_Source\PSoC4/EZI2C_1_EZI2C_INT.c ****     *  Handles the Interrupt Service Routine for the SCB EZI2C mode.
  29:Generated_Source\PSoC4/EZI2C_1_EZI2C_INT.c ****     *  The clock stretching is used during operation.
ARM GAS  C:\Users\prana\AppData\Local\Temp\cc0fwRa9.s 			page 37


  30:Generated_Source\PSoC4/EZI2C_1_EZI2C_INT.c ****     *
  31:Generated_Source\PSoC4/EZI2C_1_EZI2C_INT.c ****     *******************************************************************************/
  32:Generated_Source\PSoC4/EZI2C_1_EZI2C_INT.c ****     CY_ISR_PROTO(EZI2C_1_EZI2C_STRETCH_ISR)
  33:Generated_Source\PSoC4/EZI2C_1_EZI2C_INT.c ****     {
 505              		.loc 1 33 0
 506              		.cfi_startproc
 507              		@ args = 0, pretend = 0, frame = 16
 508              		@ frame_needed = 0, uses_anonymous_args = 0
 509 0000 F0B5     		push	{r4, r5, r6, r7, lr}
 510              		.cfi_def_cfa_offset 20
 511              		.cfi_offset 4, -20
 512              		.cfi_offset 5, -16
 513              		.cfi_offset 6, -12
 514              		.cfi_offset 7, -8
 515              		.cfi_offset 14, -4
  34:Generated_Source\PSoC4/EZI2C_1_EZI2C_INT.c ****         static uint16 locBufSize;
  35:Generated_Source\PSoC4/EZI2C_1_EZI2C_INT.c ****         uint32 locIndex;
  36:Generated_Source\PSoC4/EZI2C_1_EZI2C_INT.c ****         uint32 locStatus;
  37:Generated_Source\PSoC4/EZI2C_1_EZI2C_INT.c **** 
  38:Generated_Source\PSoC4/EZI2C_1_EZI2C_INT.c ****         uint32 endTransfer;
  39:Generated_Source\PSoC4/EZI2C_1_EZI2C_INT.c ****         uint32 fifoIndex;
  40:Generated_Source\PSoC4/EZI2C_1_EZI2C_INT.c ****         uint32 locByte;
  41:Generated_Source\PSoC4/EZI2C_1_EZI2C_INT.c **** 
  42:Generated_Source\PSoC4/EZI2C_1_EZI2C_INT.c ****         uint32 locIntrCause;
  43:Generated_Source\PSoC4/EZI2C_1_EZI2C_INT.c ****         uint32 locIntrSlave;
  44:Generated_Source\PSoC4/EZI2C_1_EZI2C_INT.c **** 
  45:Generated_Source\PSoC4/EZI2C_1_EZI2C_INT.c ****     #ifdef EZI2C_1_EZI2C_STRETCH_ISR_ENTRY_CALLBACK
  46:Generated_Source\PSoC4/EZI2C_1_EZI2C_INT.c ****         EZI2C_1_EZI2C_STRETCH_ISR_EntryCallback();
  47:Generated_Source\PSoC4/EZI2C_1_EZI2C_INT.c ****     #endif /* EZI2C_1_EZI2C_STRETCH_ISR_ENTRY_CALLBACK */
  48:Generated_Source\PSoC4/EZI2C_1_EZI2C_INT.c **** 
  49:Generated_Source\PSoC4/EZI2C_1_EZI2C_INT.c ****     #if(EZI2C_1_SECONDARY_ADDRESS_ENABLE_CONST)
  50:Generated_Source\PSoC4/EZI2C_1_EZI2C_INT.c ****         /* Variable intended to be used with either buffer */
  51:Generated_Source\PSoC4/EZI2C_1_EZI2C_INT.c ****         static volatile uint8 * EZI2C_1_dataBuffer; /* Pointer to data buffer              */
  52:Generated_Source\PSoC4/EZI2C_1_EZI2C_INT.c ****         static uint16 EZI2C_1_bufSizeBuf;           /* Size of buffer in bytes             */
  53:Generated_Source\PSoC4/EZI2C_1_EZI2C_INT.c ****         static uint16 EZI2C_1_protectBuf;           /* Start index of write protected area */
  54:Generated_Source\PSoC4/EZI2C_1_EZI2C_INT.c **** 
  55:Generated_Source\PSoC4/EZI2C_1_EZI2C_INT.c ****         static uint8 activeAddress;
  56:Generated_Source\PSoC4/EZI2C_1_EZI2C_INT.c ****         uint32 ackResponse;
  57:Generated_Source\PSoC4/EZI2C_1_EZI2C_INT.c **** 
  58:Generated_Source\PSoC4/EZI2C_1_EZI2C_INT.c ****         ackResponse = EZI2C_1_EZI2C_ACK_RECEIVED_ADDRESS;
  59:Generated_Source\PSoC4/EZI2C_1_EZI2C_INT.c ****     #endif /* (EZI2C_1_SECONDARY_ADDRESS_ENABLE_CONST) */
  60:Generated_Source\PSoC4/EZI2C_1_EZI2C_INT.c **** 
  61:Generated_Source\PSoC4/EZI2C_1_EZI2C_INT.c ****     #if !defined (CY_REMOVE_EZI2C_1_CUSTOM_INTR_HANDLER)
  62:Generated_Source\PSoC4/EZI2C_1_EZI2C_INT.c ****         if(NULL != EZI2C_1_customIntrHandler)
 516              		.loc 1 62 0
 517 0002 A04B     		ldr	r3, .L69
  33:Generated_Source\PSoC4/EZI2C_1_EZI2C_INT.c ****         static uint16 locBufSize;
 518              		.loc 1 33 0
 519 0004 85B0     		sub	sp, sp, #20
 520              		.cfi_def_cfa_offset 40
 521              		.loc 1 62 0
 522 0006 1B68     		ldr	r3, [r3]
 523 0008 002B     		cmp	r3, #0
 524 000a 00D0     		beq	.L2
  63:Generated_Source\PSoC4/EZI2C_1_EZI2C_INT.c ****         {
  64:Generated_Source\PSoC4/EZI2C_1_EZI2C_INT.c ****             EZI2C_1_customIntrHandler();
 525              		.loc 1 64 0
ARM GAS  C:\Users\prana\AppData\Local\Temp\cc0fwRa9.s 			page 38


 526 000c 9847     		blx	r3
 527              	.LVL0:
 528              	.L2:
  65:Generated_Source\PSoC4/EZI2C_1_EZI2C_INT.c ****         }
  66:Generated_Source\PSoC4/EZI2C_1_EZI2C_INT.c ****     #else
  67:Generated_Source\PSoC4/EZI2C_1_EZI2C_INT.c ****         CY_EZI2C_1_CUSTOM_INTR_HANDLER();
  68:Generated_Source\PSoC4/EZI2C_1_EZI2C_INT.c ****     #endif /* !defined (CY_REMOVE_EZI2C_1_CUSTOM_INTR_HANDLER) */
  69:Generated_Source\PSoC4/EZI2C_1_EZI2C_INT.c **** 
  70:Generated_Source\PSoC4/EZI2C_1_EZI2C_INT.c ****         /* Make local copy of global variable */
  71:Generated_Source\PSoC4/EZI2C_1_EZI2C_INT.c ****         locIndex = EZI2C_1_EZI2C_GET_INDEX(activeAddress);
  72:Generated_Source\PSoC4/EZI2C_1_EZI2C_INT.c **** 
  73:Generated_Source\PSoC4/EZI2C_1_EZI2C_INT.c ****         /* Get interrupt sources */
  74:Generated_Source\PSoC4/EZI2C_1_EZI2C_INT.c ****         locIntrSlave = EZI2C_1_GetSlaveInterruptSource();
 529              		.loc 1 74 0
 530 000e 9E49     		ldr	r1, .L69+4
  75:Generated_Source\PSoC4/EZI2C_1_EZI2C_INT.c ****         locIntrCause = EZI2C_1_GetInterruptCause();
 531              		.loc 1 75 0
 532 0010 9E4A     		ldr	r2, .L69+8
  74:Generated_Source\PSoC4/EZI2C_1_EZI2C_INT.c ****         locIntrCause = EZI2C_1_GetInterruptCause();
 533              		.loc 1 74 0
 534 0012 0D68     		ldr	r5, [r1]
 535              		.loc 1 75 0
 536 0014 1368     		ldr	r3, [r2]
  71:Generated_Source\PSoC4/EZI2C_1_EZI2C_INT.c **** 
 537              		.loc 1 71 0
 538 0016 9E48     		ldr	r0, .L69+12
 539              		.loc 1 75 0
 540 0018 0093     		str	r3, [sp]
  76:Generated_Source\PSoC4/EZI2C_1_EZI2C_INT.c **** 
  77:Generated_Source\PSoC4/EZI2C_1_EZI2C_INT.c ****         /* INTR_SLAVE.I2C_ARB_LOST and INTR_SLAVE_I2C.BUS_ERROR */
  78:Generated_Source\PSoC4/EZI2C_1_EZI2C_INT.c ****         /* Handles errors on the bus. There are cases when both bits are set.
  79:Generated_Source\PSoC4/EZI2C_1_EZI2C_INT.c ****         * The error recovery is common: re-enable the scb IP. The content of the RX FIFO is lost.
  80:Generated_Source\PSoC4/EZI2C_1_EZI2C_INT.c ****         */
  81:Generated_Source\PSoC4/EZI2C_1_EZI2C_INT.c ****         if(0u != (locIntrSlave & (EZI2C_1_INTR_SLAVE_I2C_ARB_LOST |
 541              		.loc 1 81 0
 542 001a 0223     		movs	r3, #2
 543 001c FF33     		adds	r3, r3, #255
  71:Generated_Source\PSoC4/EZI2C_1_EZI2C_INT.c **** 
 544              		.loc 1 71 0
 545 001e 0488     		ldrh	r4, [r0]
 546              	.LVL1:
 547              		.loc 1 81 0
 548 0020 2B40     		ands	r3, r5
 549 0022 0190     		str	r0, [sp, #4]
 550 0024 0291     		str	r1, [sp, #8]
 551 0026 0392     		str	r2, [sp, #12]
 552 0028 2FD0     		beq	.L3
  82:Generated_Source\PSoC4/EZI2C_1_EZI2C_INT.c ****                                   EZI2C_1_INTR_SLAVE_I2C_BUS_ERROR)))
  83:Generated_Source\PSoC4/EZI2C_1_EZI2C_INT.c ****         {
  84:Generated_Source\PSoC4/EZI2C_1_EZI2C_INT.c ****             EZI2C_1_CTRL_REG &= (uint32) ~EZI2C_1_CTRL_ENABLED; /* Disable SCB block */
  85:Generated_Source\PSoC4/EZI2C_1_EZI2C_INT.c **** 
  86:Generated_Source\PSoC4/EZI2C_1_EZI2C_INT.c ****         #if(EZI2C_1_CY_SCBIP_V0)
  87:Generated_Source\PSoC4/EZI2C_1_EZI2C_INT.c ****             if(0u != ((uint8) EZI2C_1_EZI2C_STATUS_BUSY & EZI2C_1_curStatus))
  88:Generated_Source\PSoC4/EZI2C_1_EZI2C_INT.c ****         #endif /* (EZI2C_1_CY_SCBIP_V0) */
  89:Generated_Source\PSoC4/EZI2C_1_EZI2C_INT.c ****             {
  90:Generated_Source\PSoC4/EZI2C_1_EZI2C_INT.c ****                 EZI2C_1_curStatus &= (uint8) ~EZI2C_1_EZI2C_STATUS_BUSY;
 553              		.loc 1 90 0
ARM GAS  C:\Users\prana\AppData\Local\Temp\cc0fwRa9.s 			page 39


 554 002a 2020     		movs	r0, #32
  84:Generated_Source\PSoC4/EZI2C_1_EZI2C_INT.c **** 
 555              		.loc 1 84 0
 556 002c 994A     		ldr	r2, .L69+16
 557 002e 1368     		ldr	r3, [r2]
 558 0030 5B00     		lsls	r3, r3, #1
 559 0032 5B08     		lsrs	r3, r3, #1
 560 0034 1360     		str	r3, [r2]
 561              	.LVL2:
 562              		.loc 1 90 0
 563 0036 984B     		ldr	r3, .L69+20
 564 0038 1978     		ldrb	r1, [r3]
 565 003a 8143     		bics	r1, r0
 566 003c 1970     		strb	r1, [r3]
  91:Generated_Source\PSoC4/EZI2C_1_EZI2C_INT.c ****                 EZI2C_1_curStatus |= (uint8)  EZI2C_1_EZI2C_STATUS_ERR;
 567              		.loc 1 91 0
 568 003e 1978     		ldrb	r1, [r3]
 569 0040 1038     		subs	r0, r0, #16
 570 0042 0143     		orrs	r1, r0
 571 0044 1970     		strb	r1, [r3]
  92:Generated_Source\PSoC4/EZI2C_1_EZI2C_INT.c **** 
  93:Generated_Source\PSoC4/EZI2C_1_EZI2C_INT.c ****                 /* INTR_TX_EMPTY is enabled in the address phase to receive data */
  94:Generated_Source\PSoC4/EZI2C_1_EZI2C_INT.c ****                 if(0u == (EZI2C_1_GetTxInterruptMode() & EZI2C_1_INTR_TX_EMPTY))
 572              		.loc 1 94 0
 573 0046 9549     		ldr	r1, .L69+24
 574 0048 0D68     		ldr	r5, [r1]
 575              	.LVL3:
 576 004a 0542     		tst	r5, r0
 577 004c 08D1     		bne	.L4
  95:Generated_Source\PSoC4/EZI2C_1_EZI2C_INT.c ****                 {
  96:Generated_Source\PSoC4/EZI2C_1_EZI2C_INT.c ****                     /* Write complete */
  97:Generated_Source\PSoC4/EZI2C_1_EZI2C_INT.c ****                     if(EZI2C_1_indexBuf1 != EZI2C_1_offsetBuf1)
 578              		.loc 1 97 0
 579 004e 9448     		ldr	r0, .L69+28
 580 0050 0578     		ldrb	r5, [r0]
 581 0052 0198     		ldr	r0, [sp, #4]
 582 0054 0088     		ldrh	r0, [r0]
 583 0056 8542     		cmp	r5, r0
 584 0058 06D0     		beq	.L5
  98:Generated_Source\PSoC4/EZI2C_1_EZI2C_INT.c ****                     {
  99:Generated_Source\PSoC4/EZI2C_1_EZI2C_INT.c ****                         EZI2C_1_curStatus |= (uint8) EZI2C_1_INTR_SLAVE_I2C_WRITE_STOP;
 585              		.loc 1 99 0
 586 005a 1878     		ldrb	r0, [r3]
 587 005c 0825     		movs	r5, #8
 588 005e 01E0     		b	.L63
 589              	.L4:
 100:Generated_Source\PSoC4/EZI2C_1_EZI2C_INT.c ****                     }
 101:Generated_Source\PSoC4/EZI2C_1_EZI2C_INT.c ****                 }
 102:Generated_Source\PSoC4/EZI2C_1_EZI2C_INT.c ****                 else
 103:Generated_Source\PSoC4/EZI2C_1_EZI2C_INT.c ****                 {
 104:Generated_Source\PSoC4/EZI2C_1_EZI2C_INT.c ****                     /* Read complete */
 105:Generated_Source\PSoC4/EZI2C_1_EZI2C_INT.c ****                     EZI2C_1_curStatus |= (uint8) EZI2C_1_INTR_SLAVE_I2C_NACK;
 590              		.loc 1 105 0
 591 0060 0225     		movs	r5, #2
 592 0062 1878     		ldrb	r0, [r3]
 593              	.L63:
 594 0064 2843     		orrs	r0, r5
ARM GAS  C:\Users\prana\AppData\Local\Temp\cc0fwRa9.s 			page 40


 595 0066 1870     		strb	r0, [r3]
 596              	.L5:
 106:Generated_Source\PSoC4/EZI2C_1_EZI2C_INT.c ****                 }
 107:Generated_Source\PSoC4/EZI2C_1_EZI2C_INT.c ****             }
 108:Generated_Source\PSoC4/EZI2C_1_EZI2C_INT.c **** 
 109:Generated_Source\PSoC4/EZI2C_1_EZI2C_INT.c ****             EZI2C_1_DISABLE_SLAVE_AUTO_DATA;
 597              		.loc 1 109 0
 598 0068 8E48     		ldr	r0, .L69+32
 599 006a 8F4B     		ldr	r3, .L69+36
 600 006c 0568     		ldr	r5, [r0]
 601 006e 2B40     		ands	r3, r5
 602 0070 0360     		str	r3, [r0]
 110:Generated_Source\PSoC4/EZI2C_1_EZI2C_INT.c **** 
 111:Generated_Source\PSoC4/EZI2C_1_EZI2C_INT.c ****             /* Disable TX and RX interrupt sources */
 112:Generated_Source\PSoC4/EZI2C_1_EZI2C_INT.c ****             EZI2C_1_SetRxInterruptMode(EZI2C_1_NO_INTR_SOURCES);
 603              		.loc 1 112 0
 604 0072 0023     		movs	r3, #0
 605 0074 8D48     		ldr	r0, .L69+40
 606 0076 0360     		str	r3, [r0]
 113:Generated_Source\PSoC4/EZI2C_1_EZI2C_INT.c ****             EZI2C_1_SetTxInterruptMode(EZI2C_1_NO_INTR_SOURCES);
 607              		.loc 1 113 0
 608 0078 0B60     		str	r3, [r1]
 114:Generated_Source\PSoC4/EZI2C_1_EZI2C_INT.c **** 
 115:Generated_Source\PSoC4/EZI2C_1_EZI2C_INT.c ****         #if(EZI2C_1_CY_SCBIP_V0)
 116:Generated_Source\PSoC4/EZI2C_1_EZI2C_INT.c ****             /* Clear interrupt sources as they are not automatically cleared after SCB is disabled 
 117:Generated_Source\PSoC4/EZI2C_1_EZI2C_INT.c ****             EZI2C_1_ClearRxInterruptSource(EZI2C_1_INTR_RX_ALL);
 118:Generated_Source\PSoC4/EZI2C_1_EZI2C_INT.c ****             EZI2C_1_ClearSlaveInterruptSource(EZI2C_1_INTR_SLAVE_ALL);
 119:Generated_Source\PSoC4/EZI2C_1_EZI2C_INT.c ****         #endif /* (EZI2C_1_CY_SCBIP_V0) */
 120:Generated_Source\PSoC4/EZI2C_1_EZI2C_INT.c **** 
 121:Generated_Source\PSoC4/EZI2C_1_EZI2C_INT.c ****             EZI2C_1_fsmState = EZI2C_1_EZI2C_FSM_IDLE;
 609              		.loc 1 121 0
 610 007a 8D49     		ldr	r1, .L69+44
 611 007c 0B70     		strb	r3, [r1]
 122:Generated_Source\PSoC4/EZI2C_1_EZI2C_INT.c **** 
 123:Generated_Source\PSoC4/EZI2C_1_EZI2C_INT.c ****             EZI2C_1_CTRL_REG |= (uint32) EZI2C_1_CTRL_ENABLED;  /* Enable SCB block */
 612              		.loc 1 123 0
 613 007e 8021     		movs	r1, #128
 614 0080 1368     		ldr	r3, [r2]
 615 0082 0906     		lsls	r1, r1, #24
 616 0084 0B43     		orrs	r3, r1
 617 0086 1360     		str	r3, [r2]
 618 0088 F7E0     		b	.L6
 619              	.LVL4:
 620              	.L3:
 124:Generated_Source\PSoC4/EZI2C_1_EZI2C_INT.c ****         }
 125:Generated_Source\PSoC4/EZI2C_1_EZI2C_INT.c ****         else
 126:Generated_Source\PSoC4/EZI2C_1_EZI2C_INT.c ****         {
 127:Generated_Source\PSoC4/EZI2C_1_EZI2C_INT.c ****             /* INTR_I2C_EC_WAKE_UP */
 128:Generated_Source\PSoC4/EZI2C_1_EZI2C_INT.c ****             /* Wakes up device from deep sleep */
 129:Generated_Source\PSoC4/EZI2C_1_EZI2C_INT.c ****             if(0u != (locIntrCause & EZI2C_1_INTR_CAUSE_I2C_EC))
 621              		.loc 1 129 0
 622 008a 009A     		ldr	r2, [sp]
 623 008c D206     		lsls	r2, r2, #27
 624 008e 01D5     		bpl	.L7
 130:Generated_Source\PSoC4/EZI2C_1_EZI2C_INT.c ****             {
 131:Generated_Source\PSoC4/EZI2C_1_EZI2C_INT.c ****                 /* Disables wakeup interrupt source but does not clear it. It is cleared in INTR_SL
 132:Generated_Source\PSoC4/EZI2C_1_EZI2C_INT.c ****                 EZI2C_1_SetI2CExtClkInterruptMode(EZI2C_1_NO_INTR_SOURCES);
ARM GAS  C:\Users\prana\AppData\Local\Temp\cc0fwRa9.s 			page 41


 625              		.loc 1 132 0
 626 0090 884A     		ldr	r2, .L69+48
 627 0092 1360     		str	r3, [r2]
 628              	.LVL5:
 629              	.L7:
 133:Generated_Source\PSoC4/EZI2C_1_EZI2C_INT.c ****             }
 134:Generated_Source\PSoC4/EZI2C_1_EZI2C_INT.c **** 
 135:Generated_Source\PSoC4/EZI2C_1_EZI2C_INT.c ****             if(0u != (locIntrCause & (EZI2C_1_INTR_CAUSE_RX | EZI2C_1_INTR_CAUSE_SLAVE)))
 630              		.loc 1 135 0
 631 0094 0A23     		movs	r3, #10
 632 0096 009A     		ldr	r2, [sp]
 633 0098 1A42     		tst	r2, r3
 634 009a 00D1     		bne	.LCB125
 635 009c 82E0     		b	.L8	@long jump
 636              	.LCB125:
 136:Generated_Source\PSoC4/EZI2C_1_EZI2C_INT.c ****             {
 137:Generated_Source\PSoC4/EZI2C_1_EZI2C_INT.c ****                 /* INTR_RX.NOT_EMPTY */
 138:Generated_Source\PSoC4/EZI2C_1_EZI2C_INT.c ****                 /* Receives data byte-by-byte. Does not use RX FIFO capabilities */
 139:Generated_Source\PSoC4/EZI2C_1_EZI2C_INT.c ****                 if (0u != (EZI2C_1_GetRxInterruptSourceMasked() & EZI2C_1_INTR_RX_NOT_EMPTY))
 637              		.loc 1 139 0
 638 009e 864B     		ldr	r3, .L69+52
 639 00a0 1B68     		ldr	r3, [r3]
 640 00a2 5B07     		lsls	r3, r3, #29
 641 00a4 49D5     		bpl	.L9
 140:Generated_Source\PSoC4/EZI2C_1_EZI2C_INT.c ****                 {
 141:Generated_Source\PSoC4/EZI2C_1_EZI2C_INT.c ****                 #if(EZI2C_1_SECONDARY_ADDRESS_ENABLE_CONST)
 142:Generated_Source\PSoC4/EZI2C_1_EZI2C_INT.c ****                     /* If I2C_STOP service is delayed to I2C_ADDR_MATCH the address byte is in the 
 143:Generated_Source\PSoC4/EZI2C_1_EZI2C_INT.c ****                     * RX_NOT_EMPTY is enabled. The address byte has to stay into RX FIFO therefore
 144:Generated_Source\PSoC4/EZI2C_1_EZI2C_INT.c ****                     * RX.NOT_EMPTY service has to be skipped. The address byte has to be read by I2
 145:Generated_Source\PSoC4/EZI2C_1_EZI2C_INT.c ****                     */
 146:Generated_Source\PSoC4/EZI2C_1_EZI2C_INT.c ****                     if (0u == (locIntrCause & EZI2C_1_INTR_CAUSE_SLAVE))
 147:Generated_Source\PSoC4/EZI2C_1_EZI2C_INT.c ****                 #endif /* (EZI2C_1_SECONDARY_ADDRESS_ENABLE_CONST) */
 148:Generated_Source\PSoC4/EZI2C_1_EZI2C_INT.c ****                     {
 149:Generated_Source\PSoC4/EZI2C_1_EZI2C_INT.c ****                         locByte = EZI2C_1_RX_FIFO_RD_REG;
 642              		.loc 1 149 0
 643 00a6 854B     		ldr	r3, .L69+56
 150:Generated_Source\PSoC4/EZI2C_1_EZI2C_INT.c **** 
 151:Generated_Source\PSoC4/EZI2C_1_EZI2C_INT.c ****                         switch(EZI2C_1_fsmState)
 644              		.loc 1 151 0
 645 00a8 8149     		ldr	r1, .L69+44
 149:Generated_Source\PSoC4/EZI2C_1_EZI2C_INT.c **** 
 646              		.loc 1 149 0
 647 00aa 1A68     		ldr	r2, [r3]
 648              	.LVL6:
 649              		.loc 1 151 0
 650 00ac 0B78     		ldrb	r3, [r1]
 651 00ae 002B     		cmp	r3, #0
 652 00b0 11D0     		beq	.L11
 653 00b2 012B     		cmp	r3, #1
 654 00b4 3CD1     		bne	.L62
 152:Generated_Source\PSoC4/EZI2C_1_EZI2C_INT.c ****                         {
 153:Generated_Source\PSoC4/EZI2C_1_EZI2C_INT.c ****                         case EZI2C_1_EZI2C_FSM_BYTE_WRITE:
 154:Generated_Source\PSoC4/EZI2C_1_EZI2C_INT.c ****                             if(0u != locBufSize)
 655              		.loc 1 154 0
 656 00b6 8249     		ldr	r1, .L69+60
 657 00b8 8248     		ldr	r0, .L69+64
 658 00ba 0E88     		ldrh	r6, [r1]
ARM GAS  C:\Users\prana\AppData\Local\Temp\cc0fwRa9.s 			page 42


 659 00bc 002E     		cmp	r6, #0
 660 00be 34D0     		beq	.L15
 155:Generated_Source\PSoC4/EZI2C_1_EZI2C_INT.c ****                             {
 156:Generated_Source\PSoC4/EZI2C_1_EZI2C_INT.c ****                                 /* Store data byte and ACK */
 157:Generated_Source\PSoC4/EZI2C_1_EZI2C_INT.c ****                                 EZI2C_1_I2C_SLAVE_GENERATE_ACK;
 661              		.loc 1 157 0
 662 00c0 0360     		str	r3, [r0]
 158:Generated_Source\PSoC4/EZI2C_1_EZI2C_INT.c **** 
 159:Generated_Source\PSoC4/EZI2C_1_EZI2C_INT.c ****                                 EZI2C_1_dataBuffer1[locIndex] = (uint8) locByte;
 663              		.loc 1 159 0
 664 00c2 814B     		ldr	r3, .L69+68
 665 00c4 D2B2     		uxtb	r2, r2
 666              	.LVL7:
 667 00c6 1B68     		ldr	r3, [r3]
 668 00c8 1B19     		adds	r3, r3, r4
 669 00ca 1A70     		strb	r2, [r3]
 160:Generated_Source\PSoC4/EZI2C_1_EZI2C_INT.c ****                                 locIndex++;
 161:Generated_Source\PSoC4/EZI2C_1_EZI2C_INT.c ****                                 locBufSize--;
 670              		.loc 1 161 0
 671 00cc 0B88     		ldrh	r3, [r1]
 160:Generated_Source\PSoC4/EZI2C_1_EZI2C_INT.c ****                                 locIndex++;
 672              		.loc 1 160 0
 673 00ce 0134     		adds	r4, r4, #1
 674              	.LVL8:
 675              		.loc 1 161 0
 676 00d0 013B     		subs	r3, r3, #1
 677 00d2 0B80     		strh	r3, [r1]
 678 00d4 2FE0     		b	.L14
 679              	.LVL9:
 680              	.L11:
 162:Generated_Source\PSoC4/EZI2C_1_EZI2C_INT.c ****                             }
 163:Generated_Source\PSoC4/EZI2C_1_EZI2C_INT.c ****                             else
 164:Generated_Source\PSoC4/EZI2C_1_EZI2C_INT.c ****                             {
 165:Generated_Source\PSoC4/EZI2C_1_EZI2C_INT.c ****                                 /* Discard data byte and NACK */
 166:Generated_Source\PSoC4/EZI2C_1_EZI2C_INT.c ****                                 EZI2C_1_I2C_SLAVE_GENERATE_NACK;
 167:Generated_Source\PSoC4/EZI2C_1_EZI2C_INT.c ****                             }
 168:Generated_Source\PSoC4/EZI2C_1_EZI2C_INT.c ****                             break;
 169:Generated_Source\PSoC4/EZI2C_1_EZI2C_INT.c **** 
 170:Generated_Source\PSoC4/EZI2C_1_EZI2C_INT.c ****                     #if(EZI2C_1_SUB_ADDRESS_SIZE16_CONST)
 171:Generated_Source\PSoC4/EZI2C_1_EZI2C_INT.c ****                         case EZI2C_1_EZI2C_FSM_OFFSET_HI8:
 172:Generated_Source\PSoC4/EZI2C_1_EZI2C_INT.c **** 
 173:Generated_Source\PSoC4/EZI2C_1_EZI2C_INT.c ****                             EZI2C_1_I2C_SLAVE_GENERATE_ACK;
 174:Generated_Source\PSoC4/EZI2C_1_EZI2C_INT.c **** 
 175:Generated_Source\PSoC4/EZI2C_1_EZI2C_INT.c ****                             /* Store offset most significant byre */
 176:Generated_Source\PSoC4/EZI2C_1_EZI2C_INT.c ****                             locBufSize = (uint16) ((uint8) locByte);
 177:Generated_Source\PSoC4/EZI2C_1_EZI2C_INT.c **** 
 178:Generated_Source\PSoC4/EZI2C_1_EZI2C_INT.c ****                             EZI2C_1_fsmState = EZI2C_1_EZI2C_FSM_OFFSET_LO8;
 179:Generated_Source\PSoC4/EZI2C_1_EZI2C_INT.c **** 
 180:Generated_Source\PSoC4/EZI2C_1_EZI2C_INT.c ****                             break;
 181:Generated_Source\PSoC4/EZI2C_1_EZI2C_INT.c ****                     #endif /* (EZI2C_1_SUB_ADDRESS_SIZE16_CONST) */
 182:Generated_Source\PSoC4/EZI2C_1_EZI2C_INT.c **** 
 183:Generated_Source\PSoC4/EZI2C_1_EZI2C_INT.c ****                         case EZI2C_1_EZI2C_FSM_OFFSET_LO8:
 184:Generated_Source\PSoC4/EZI2C_1_EZI2C_INT.c **** 
 185:Generated_Source\PSoC4/EZI2C_1_EZI2C_INT.c ****                             #if (EZI2C_1_SUB_ADDRESS_SIZE16)
 186:Generated_Source\PSoC4/EZI2C_1_EZI2C_INT.c ****                             {
 187:Generated_Source\PSoC4/EZI2C_1_EZI2C_INT.c ****                                 /* Collect 2 bytes offset */
 188:Generated_Source\PSoC4/EZI2C_1_EZI2C_INT.c ****                                 locByte = ((uint32) ((uint32) locBufSize << 8u)) | locByte;
ARM GAS  C:\Users\prana\AppData\Local\Temp\cc0fwRa9.s 			page 43


 189:Generated_Source\PSoC4/EZI2C_1_EZI2C_INT.c ****                             }
 190:Generated_Source\PSoC4/EZI2C_1_EZI2C_INT.c ****                             #endif
 191:Generated_Source\PSoC4/EZI2C_1_EZI2C_INT.c **** 
 192:Generated_Source\PSoC4/EZI2C_1_EZI2C_INT.c ****                             /* Check offset against buffer size */
 193:Generated_Source\PSoC4/EZI2C_1_EZI2C_INT.c ****                             if(locByte < (uint32) EZI2C_1_bufSizeBuf1)
 681              		.loc 1 193 0
 682 00d6 7D48     		ldr	r0, .L69+72
 683 00d8 0688     		ldrh	r6, [r0]
 684 00da 7A48     		ldr	r0, .L69+64
 685 00dc B242     		cmp	r2, r6
 686 00de 24D2     		bcs	.L15
 194:Generated_Source\PSoC4/EZI2C_1_EZI2C_INT.c ****                             {
 195:Generated_Source\PSoC4/EZI2C_1_EZI2C_INT.c ****                                 EZI2C_1_I2C_SLAVE_GENERATE_ACK;
 687              		.loc 1 195 0
 688 00e0 0124     		movs	r4, #1
 689 00e2 0460     		str	r4, [r0]
 690              	.LVL10:
 196:Generated_Source\PSoC4/EZI2C_1_EZI2C_INT.c **** 
 197:Generated_Source\PSoC4/EZI2C_1_EZI2C_INT.c ****                                 /* Update local buffer index with new offset */
 198:Generated_Source\PSoC4/EZI2C_1_EZI2C_INT.c ****                                 locIndex = locByte;
 199:Generated_Source\PSoC4/EZI2C_1_EZI2C_INT.c **** 
 200:Generated_Source\PSoC4/EZI2C_1_EZI2C_INT.c ****                                 /* Get available buffer size to write */
 201:Generated_Source\PSoC4/EZI2C_1_EZI2C_INT.c ****                                 locBufSize = (uint16) ((locByte < EZI2C_1_protectBuf1) ?
 691              		.loc 1 201 0
 692 00e4 7A48     		ldr	r0, .L69+76
 693 00e6 0088     		ldrh	r0, [r0]
 694 00e8 8242     		cmp	r2, r0
 695 00ea 01D2     		bcs	.L16
 696              		.loc 1 201 0 is_stmt 0 discriminator 1
 697 00ec 831A     		subs	r3, r0, r2
 698 00ee 9BB2     		uxth	r3, r3
 699              	.L16:
 700              		.loc 1 201 0 discriminator 4
 701 00f0 7348     		ldr	r0, .L69+60
 702 00f2 0380     		strh	r3, [r0]
 202:Generated_Source\PSoC4/EZI2C_1_EZI2C_INT.c ****                                                        (EZI2C_1_protectBuf1 - locByte) : (0u));
 203:Generated_Source\PSoC4/EZI2C_1_EZI2C_INT.c **** 
 204:Generated_Source\PSoC4/EZI2C_1_EZI2C_INT.c ****                             #if(EZI2C_1_CY_SCBIP_V0)
 205:Generated_Source\PSoC4/EZI2C_1_EZI2C_INT.c **** 
 206:Generated_Source\PSoC4/EZI2C_1_EZI2C_INT.c ****                                 if(locBufSize < EZI2C_1_EZI2C_FIFO_SIZE)
 207:Generated_Source\PSoC4/EZI2C_1_EZI2C_INT.c ****                                 {
 208:Generated_Source\PSoC4/EZI2C_1_EZI2C_INT.c ****                                     /* Set FSM state to receive byte by byte */
 209:Generated_Source\PSoC4/EZI2C_1_EZI2C_INT.c ****                                     EZI2C_1_fsmState = EZI2C_1_EZI2C_FSM_BYTE_WRITE;
 210:Generated_Source\PSoC4/EZI2C_1_EZI2C_INT.c ****                                 }
 211:Generated_Source\PSoC4/EZI2C_1_EZI2C_INT.c ****                                 /* Receive RX FIFO chunks */
 212:Generated_Source\PSoC4/EZI2C_1_EZI2C_INT.c ****                                 else if(locBufSize == EZI2C_1_EZI2C_FIFO_SIZE)
 213:Generated_Source\PSoC4/EZI2C_1_EZI2C_INT.c ****                                 {
 214:Generated_Source\PSoC4/EZI2C_1_EZI2C_INT.c ****                                     EZI2C_1_ENABLE_SLAVE_AUTO_DATA; /* NACK when RX FIFO is full */
 215:Generated_Source\PSoC4/EZI2C_1_EZI2C_INT.c ****                                     EZI2C_1_SetRxInterruptMode(EZI2C_1_NO_INTR_SOURCES);
 216:Generated_Source\PSoC4/EZI2C_1_EZI2C_INT.c ****                                 }
 217:Generated_Source\PSoC4/EZI2C_1_EZI2C_INT.c ****                                 else
 218:Generated_Source\PSoC4/EZI2C_1_EZI2C_INT.c ****                                 {
 219:Generated_Source\PSoC4/EZI2C_1_EZI2C_INT.c ****                                     EZI2C_1_ENABLE_SLAVE_AUTO_DATA_ACK; /* Stretch when RX FIFO is 
 220:Generated_Source\PSoC4/EZI2C_1_EZI2C_INT.c ****                                     EZI2C_1_SetRxInterruptMode(EZI2C_1_INTR_RX_FULL);
 221:Generated_Source\PSoC4/EZI2C_1_EZI2C_INT.c ****                                 }
 222:Generated_Source\PSoC4/EZI2C_1_EZI2C_INT.c **** 
 223:Generated_Source\PSoC4/EZI2C_1_EZI2C_INT.c ****                             #else
ARM GAS  C:\Users\prana\AppData\Local\Temp\cc0fwRa9.s 			page 44


 224:Generated_Source\PSoC4/EZI2C_1_EZI2C_INT.c **** 
 225:Generated_Source\PSoC4/EZI2C_1_EZI2C_INT.c ****                                 #if(EZI2C_1_SECONDARY_ADDRESS_ENABLE)
 226:Generated_Source\PSoC4/EZI2C_1_EZI2C_INT.c ****                                 {
 227:Generated_Source\PSoC4/EZI2C_1_EZI2C_INT.c ****                                     /* Set FSM state to receive byte by byte.
 228:Generated_Source\PSoC4/EZI2C_1_EZI2C_INT.c ****                                     * The byte by byte receive is always chosen for two addresses. 
 229:Generated_Source\PSoC4/EZI2C_1_EZI2C_INT.c ****                                     */
 230:Generated_Source\PSoC4/EZI2C_1_EZI2C_INT.c ****                                     EZI2C_1_fsmState = EZI2C_1_EZI2C_FSM_BYTE_WRITE;
 231:Generated_Source\PSoC4/EZI2C_1_EZI2C_INT.c ****                                 }
 232:Generated_Source\PSoC4/EZI2C_1_EZI2C_INT.c ****                                 #else
 233:Generated_Source\PSoC4/EZI2C_1_EZI2C_INT.c ****                                 {
 234:Generated_Source\PSoC4/EZI2C_1_EZI2C_INT.c ****                                     if (locBufSize < EZI2C_1_EZI2C_FIFO_SIZE)
 703              		.loc 1 234 0 is_stmt 1 discriminator 4
 704 00f4 072B     		cmp	r3, #7
 705 00f6 02D8     		bhi	.L17
 235:Generated_Source\PSoC4/EZI2C_1_EZI2C_INT.c ****                                     {
 236:Generated_Source\PSoC4/EZI2C_1_EZI2C_INT.c ****                                         /* Set FSM state to receive byte by byte */
 237:Generated_Source\PSoC4/EZI2C_1_EZI2C_INT.c ****                                         EZI2C_1_fsmState = EZI2C_1_EZI2C_FSM_BYTE_WRITE;
 706              		.loc 1 237 0
 707 00f8 0123     		movs	r3, #1
 708 00fa 0B70     		strb	r3, [r1]
 709 00fc 11E0     		b	.L18
 710              	.L17:
 711 00fe 6949     		ldr	r1, .L69+32
 712 0100 6A48     		ldr	r0, .L69+40
 238:Generated_Source\PSoC4/EZI2C_1_EZI2C_INT.c ****                                     }
 239:Generated_Source\PSoC4/EZI2C_1_EZI2C_INT.c ****                                     /* Receive RX FIFO chunks */
 240:Generated_Source\PSoC4/EZI2C_1_EZI2C_INT.c ****                                     else if (locBufSize == EZI2C_1_EZI2C_FIFO_SIZE)
 713              		.loc 1 240 0
 714 0102 082B     		cmp	r3, #8
 715 0104 06D1     		bne	.L19
 241:Generated_Source\PSoC4/EZI2C_1_EZI2C_INT.c ****                                     {
 242:Generated_Source\PSoC4/EZI2C_1_EZI2C_INT.c ****                                         EZI2C_1_ENABLE_SLAVE_AUTO_DATA; /* NACK when RX FIFO is ful
 716              		.loc 1 242 0
 717 0106 A024     		movs	r4, #160
 718 0108 0B68     		ldr	r3, [r1]
 719 010a 2402     		lsls	r4, r4, #8
 720 010c 2343     		orrs	r3, r4
 721 010e 0B60     		str	r3, [r1]
 243:Generated_Source\PSoC4/EZI2C_1_EZI2C_INT.c ****                                         EZI2C_1_SetRxInterruptMode(EZI2C_1_NO_INTR_SOURCES);
 722              		.loc 1 243 0
 723 0110 0023     		movs	r3, #0
 724 0112 05E0     		b	.L64
 725              	.L19:
 244:Generated_Source\PSoC4/EZI2C_1_EZI2C_INT.c ****                                     }
 245:Generated_Source\PSoC4/EZI2C_1_EZI2C_INT.c ****                                     else
 246:Generated_Source\PSoC4/EZI2C_1_EZI2C_INT.c ****                                     {
 247:Generated_Source\PSoC4/EZI2C_1_EZI2C_INT.c ****                                         EZI2C_1_ENABLE_SLAVE_AUTO_DATA_ACK; /* Stretch when RX FIFO
 726              		.loc 1 247 0
 727 0114 8024     		movs	r4, #128
 728 0116 0B68     		ldr	r3, [r1]
 729 0118 A401     		lsls	r4, r4, #6
 730 011a 2343     		orrs	r3, r4
 731 011c 0B60     		str	r3, [r1]
 248:Generated_Source\PSoC4/EZI2C_1_EZI2C_INT.c ****                                         EZI2C_1_SetRxInterruptMode(EZI2C_1_INTR_RX_FULL);
 732              		.loc 1 248 0
 733 011e 0823     		movs	r3, #8
 734              	.L64:
ARM GAS  C:\Users\prana\AppData\Local\Temp\cc0fwRa9.s 			page 45


 735 0120 0360     		str	r3, [r0]
 736              	.L18:
 249:Generated_Source\PSoC4/EZI2C_1_EZI2C_INT.c ****                                     }
 250:Generated_Source\PSoC4/EZI2C_1_EZI2C_INT.c ****                                 }
 251:Generated_Source\PSoC4/EZI2C_1_EZI2C_INT.c ****                                 #endif
 252:Generated_Source\PSoC4/EZI2C_1_EZI2C_INT.c **** 
 253:Generated_Source\PSoC4/EZI2C_1_EZI2C_INT.c ****                             #endif /* (EZI2C_1_CY_SCBIP_V0) */
 254:Generated_Source\PSoC4/EZI2C_1_EZI2C_INT.c **** 
 255:Generated_Source\PSoC4/EZI2C_1_EZI2C_INT.c ****                                 /* Store local offset into global variable */
 256:Generated_Source\PSoC4/EZI2C_1_EZI2C_INT.c ****                                 EZI2C_1_EZI2C_SET_OFFSET(activeAddress, locIndex);
 737              		.loc 1 256 0
 738 0122 5F4B     		ldr	r3, .L69+28
 739 0124 1400     		movs	r4, r2
 740 0126 1A70     		strb	r2, [r3]
 741 0128 05E0     		b	.L14
 742              	.LVL11:
 743              	.L15:
 257:Generated_Source\PSoC4/EZI2C_1_EZI2C_INT.c ****                             }
 258:Generated_Source\PSoC4/EZI2C_1_EZI2C_INT.c ****                             else
 259:Generated_Source\PSoC4/EZI2C_1_EZI2C_INT.c ****                             {
 260:Generated_Source\PSoC4/EZI2C_1_EZI2C_INT.c ****                                 /* Discard offset byte and NACK */
 261:Generated_Source\PSoC4/EZI2C_1_EZI2C_INT.c ****                                 EZI2C_1_I2C_SLAVE_GENERATE_NACK;
 744              		.loc 1 261 0
 745 012a 0223     		movs	r3, #2
 746 012c 0360     		str	r3, [r0]
 747 012e 02E0     		b	.L14
 748              	.L62:
 262:Generated_Source\PSoC4/EZI2C_1_EZI2C_INT.c ****                             }
 263:Generated_Source\PSoC4/EZI2C_1_EZI2C_INT.c ****                             break;
 264:Generated_Source\PSoC4/EZI2C_1_EZI2C_INT.c **** 
 265:Generated_Source\PSoC4/EZI2C_1_EZI2C_INT.c ****                         default:
 266:Generated_Source\PSoC4/EZI2C_1_EZI2C_INT.c ****                             CYASSERT(0u != 0u); /* Should never get there */
 749              		.loc 1 266 0 discriminator 1
 750 0130 0020     		movs	r0, #0
 751 0132 FFF7FEFF 		bl	CyHalt
 752              	.LVL12:
 753              	.L14:
 267:Generated_Source\PSoC4/EZI2C_1_EZI2C_INT.c ****                             break;
 268:Generated_Source\PSoC4/EZI2C_1_EZI2C_INT.c ****                         }
 269:Generated_Source\PSoC4/EZI2C_1_EZI2C_INT.c **** 
 270:Generated_Source\PSoC4/EZI2C_1_EZI2C_INT.c ****                         EZI2C_1_ClearRxInterruptSource(EZI2C_1_INTR_RX_NOT_EMPTY);
 754              		.loc 1 270 0
 755 0136 0422     		movs	r2, #4
 756 0138 32E0     		b	.L66
 757              	.L9:
 271:Generated_Source\PSoC4/EZI2C_1_EZI2C_INT.c ****                     }
 272:Generated_Source\PSoC4/EZI2C_1_EZI2C_INT.c ****                 }
 273:Generated_Source\PSoC4/EZI2C_1_EZI2C_INT.c ****                 /* INTR_RX.FULL, INTR_SLAVE.I2C_STOP */
 274:Generated_Source\PSoC4/EZI2C_1_EZI2C_INT.c ****                 /* Receive FIFO chunks: auto data ACK is enabled */
 275:Generated_Source\PSoC4/EZI2C_1_EZI2C_INT.c ****                 else if (0u != (EZI2C_1_I2C_CTRL_REG & EZI2C_1_I2C_CTRL_S_READY_DATA_ACK))
 758              		.loc 1 275 0
 759 013a 5A49     		ldr	r1, .L69+32
 760 013c 0B68     		ldr	r3, [r1]
 761 013e 9B04     		lsls	r3, r3, #18
 762 0140 30D5     		bpl	.L8
 276:Generated_Source\PSoC4/EZI2C_1_EZI2C_INT.c ****                 {
 277:Generated_Source\PSoC4/EZI2C_1_EZI2C_INT.c ****                     /* Slave interrupt (I2C_STOP or I2C_ADDR_MATCH) leads to completion of read.
ARM GAS  C:\Users\prana\AppData\Local\Temp\cc0fwRa9.s 			page 46


 278:Generated_Source\PSoC4/EZI2C_1_EZI2C_INT.c ****                     * A completion event has a higher priority than the FIFO full.
 279:Generated_Source\PSoC4/EZI2C_1_EZI2C_INT.c ****                     * Read remaining data from RX FIFO.
 280:Generated_Source\PSoC4/EZI2C_1_EZI2C_INT.c ****                     */
 281:Generated_Source\PSoC4/EZI2C_1_EZI2C_INT.c ****                     if(0u != (locIntrCause & EZI2C_1_INTR_CAUSE_SLAVE))
 763              		.loc 1 281 0
 764 0142 0222     		movs	r2, #2
 765 0144 009B     		ldr	r3, [sp]
 766 0146 1A40     		ands	r2, r3
 767 0148 08D0     		beq	.L20
 282:Generated_Source\PSoC4/EZI2C_1_EZI2C_INT.c ****                     {
 283:Generated_Source\PSoC4/EZI2C_1_EZI2C_INT.c ****                         /* Read remaining bytes from RX FIFO */
 284:Generated_Source\PSoC4/EZI2C_1_EZI2C_INT.c ****                         fifoIndex = EZI2C_1_GET_RX_FIFO_ENTRIES;
 768              		.loc 1 284 0
 769 014a 624B     		ldr	r3, .L69+80
 770 014c 1A68     		ldr	r2, [r3]
 771 014e 1F23     		movs	r3, #31
 285:Generated_Source\PSoC4/EZI2C_1_EZI2C_INT.c **** 
 286:Generated_Source\PSoC4/EZI2C_1_EZI2C_INT.c ****                         #if(EZI2C_1_SECONDARY_ADDRESS_ENABLE)
 287:Generated_Source\PSoC4/EZI2C_1_EZI2C_INT.c ****                         {
 288:Generated_Source\PSoC4/EZI2C_1_EZI2C_INT.c ****                             /* Update with current address match */
 289:Generated_Source\PSoC4/EZI2C_1_EZI2C_INT.c ****                             if(EZI2C_1_CHECK_INTR_SLAVE_MASKED(EZI2C_1_INTR_SLAVE_I2C_ADDR_MATCH))
 290:Generated_Source\PSoC4/EZI2C_1_EZI2C_INT.c ****                             {
 291:Generated_Source\PSoC4/EZI2C_1_EZI2C_INT.c ****                                 /* Update RX FIFO entries as address byte is there now */
 292:Generated_Source\PSoC4/EZI2C_1_EZI2C_INT.c ****                                 fifoIndex = EZI2C_1_GET_RX_FIFO_ENTRIES;
 293:Generated_Source\PSoC4/EZI2C_1_EZI2C_INT.c **** 
 294:Generated_Source\PSoC4/EZI2C_1_EZI2C_INT.c ****                                 /* If SR is valid, RX FIFO is full and address is in SHIFTER:
 295:Generated_Source\PSoC4/EZI2C_1_EZI2C_INT.c ****                                 * read 8 entries and leave address in RX FIFO for further processin
 296:Generated_Source\PSoC4/EZI2C_1_EZI2C_INT.c ****                                 * If SR is invalid, address is already in RX FIFO: read (entries-1)
 297:Generated_Source\PSoC4/EZI2C_1_EZI2C_INT.c ****                                 */
 298:Generated_Source\PSoC4/EZI2C_1_EZI2C_INT.c ****                                 fifoIndex -= ((0u != EZI2C_1_GET_RX_FIFO_SR_VALID) ? (0u) : (1u));
 299:Generated_Source\PSoC4/EZI2C_1_EZI2C_INT.c ****                             }
 300:Generated_Source\PSoC4/EZI2C_1_EZI2C_INT.c ****                         }
 301:Generated_Source\PSoC4/EZI2C_1_EZI2C_INT.c ****                         #endif
 302:Generated_Source\PSoC4/EZI2C_1_EZI2C_INT.c **** 
 303:Generated_Source\PSoC4/EZI2C_1_EZI2C_INT.c ****                         EZI2C_1_DISABLE_SLAVE_AUTO_DATA;
 772              		.loc 1 303 0
 773 0150 0868     		ldr	r0, [r1]
 284:Generated_Source\PSoC4/EZI2C_1_EZI2C_INT.c **** 
 774              		.loc 1 284 0
 775 0152 1340     		ands	r3, r2
 776              	.LVL13:
 777              		.loc 1 303 0
 778 0154 544A     		ldr	r2, .L69+36
 779 0156 0240     		ands	r2, r0
 780 0158 0A60     		str	r2, [r1]
 781              	.LVL14:
 782 015a 07E0     		b	.L65
 783              	.LVL15:
 784              	.L20:
 304:Generated_Source\PSoC4/EZI2C_1_EZI2C_INT.c ****                         endTransfer = EZI2C_1_EZI2C_CONTINUE_TRANSFER;
 305:Generated_Source\PSoC4/EZI2C_1_EZI2C_INT.c ****                     }
 306:Generated_Source\PSoC4/EZI2C_1_EZI2C_INT.c ****                     else
 307:Generated_Source\PSoC4/EZI2C_1_EZI2C_INT.c ****                     /* INTR_RX_FULL */
 308:Generated_Source\PSoC4/EZI2C_1_EZI2C_INT.c ****                     /* Continue transfer or disable INTR_RX_FULL to catch completion event. */
 309:Generated_Source\PSoC4/EZI2C_1_EZI2C_INT.c ****                     {
 310:Generated_Source\PSoC4/EZI2C_1_EZI2C_INT.c ****                         /* Calculate buffer size available to write data into */
 311:Generated_Source\PSoC4/EZI2C_1_EZI2C_INT.c ****                         locBufSize -= (uint16) EZI2C_1_EZI2C_FIFO_SIZE;
ARM GAS  C:\Users\prana\AppData\Local\Temp\cc0fwRa9.s 			page 47


 785              		.loc 1 311 0
 786 015c 5848     		ldr	r0, .L69+60
 787 015e 0388     		ldrh	r3, [r0]
 788 0160 083B     		subs	r3, r3, #8
 789 0162 9BB2     		uxth	r3, r3
 790 0164 0380     		strh	r3, [r0]
 312:Generated_Source\PSoC4/EZI2C_1_EZI2C_INT.c **** 
 313:Generated_Source\PSoC4/EZI2C_1_EZI2C_INT.c ****                         if(locBufSize <= EZI2C_1_EZI2C_FIFO_SIZE)
 791              		.loc 1 313 0
 792 0166 082B     		cmp	r3, #8
 793 0168 01D9     		bls	.L22
 314:Generated_Source\PSoC4/EZI2C_1_EZI2C_INT.c ****                         {
 315:Generated_Source\PSoC4/EZI2C_1_EZI2C_INT.c ****                             /* Send NACK when RX FIFO overflow */
 316:Generated_Source\PSoC4/EZI2C_1_EZI2C_INT.c ****                             fifoIndex   = locBufSize;
 317:Generated_Source\PSoC4/EZI2C_1_EZI2C_INT.c ****                             endTransfer = EZI2C_1_EZI2C_COMPLETE_TRANSFER;
 318:Generated_Source\PSoC4/EZI2C_1_EZI2C_INT.c ****                         }
 319:Generated_Source\PSoC4/EZI2C_1_EZI2C_INT.c ****                         else
 320:Generated_Source\PSoC4/EZI2C_1_EZI2C_INT.c ****                         {
 321:Generated_Source\PSoC4/EZI2C_1_EZI2C_INT.c ****                             /* Continue  transaction */
 322:Generated_Source\PSoC4/EZI2C_1_EZI2C_INT.c ****                             fifoIndex   = EZI2C_1_EZI2C_FIFO_SIZE;
 794              		.loc 1 322 0
 795 016a 0823     		movs	r3, #8
 796              	.L65:
 323:Generated_Source\PSoC4/EZI2C_1_EZI2C_INT.c ****                             endTransfer = EZI2C_1_EZI2C_CONTINUE_TRANSFER;
 797              		.loc 1 323 0
 798 016c 0122     		movs	r2, #1
 799              	.L22:
 324:Generated_Source\PSoC4/EZI2C_1_EZI2C_INT.c ****                         }
 325:Generated_Source\PSoC4/EZI2C_1_EZI2C_INT.c ****                     }
 326:Generated_Source\PSoC4/EZI2C_1_EZI2C_INT.c **** 
 327:Generated_Source\PSoC4/EZI2C_1_EZI2C_INT.c ****                     for(; (0u != fifoIndex); fifoIndex--)
 328:Generated_Source\PSoC4/EZI2C_1_EZI2C_INT.c ****                     {
 329:Generated_Source\PSoC4/EZI2C_1_EZI2C_INT.c ****                         /* Store data in buffer */
 330:Generated_Source\PSoC4/EZI2C_1_EZI2C_INT.c ****                         EZI2C_1_dataBuffer1[locIndex] = (uint8) EZI2C_1_RX_FIFO_RD_REG;
 800              		.loc 1 330 0 discriminator 1
 801 016e 5348     		ldr	r0, .L69+56
 802 0170 554F     		ldr	r7, .L69+68
 803 0172 8446     		mov	ip, r0
 804 0174 E418     		adds	r4, r4, r3
 805              	.LVL16:
 806              	.L21:
 807 0176 E01A     		subs	r0, r4, r3
 808              	.LVL17:
 327:Generated_Source\PSoC4/EZI2C_1_EZI2C_INT.c ****                     {
 809              		.loc 1 327 0 discriminator 1
 810 0178 002B     		cmp	r3, #0
 811 017a 07D0     		beq	.L68
 812              		.loc 1 330 0 discriminator 2
 813 017c 3E68     		ldr	r6, [r7]
 327:Generated_Source\PSoC4/EZI2C_1_EZI2C_INT.c ****                     {
 814              		.loc 1 327 0 discriminator 2
 815 017e 013B     		subs	r3, r3, #1
 816              	.LVL18:
 817              		.loc 1 330 0 discriminator 2
 818 0180 3018     		adds	r0, r6, r0
 819              	.LVL19:
 820 0182 6646     		mov	r6, ip
ARM GAS  C:\Users\prana\AppData\Local\Temp\cc0fwRa9.s 			page 48


 821 0184 3668     		ldr	r6, [r6]
 822 0186 F6B2     		uxtb	r6, r6
 823 0188 0670     		strb	r6, [r0]
 824              	.LVL20:
 825 018a F4E7     		b	.L21
 826              	.LVL21:
 827              	.L68:
 331:Generated_Source\PSoC4/EZI2C_1_EZI2C_INT.c ****                         locIndex++;
 332:Generated_Source\PSoC4/EZI2C_1_EZI2C_INT.c ****                     }
 333:Generated_Source\PSoC4/EZI2C_1_EZI2C_INT.c **** 
 334:Generated_Source\PSoC4/EZI2C_1_EZI2C_INT.c ****                     /* Complete transfer sending NACK when RX FIFO overflow */
 335:Generated_Source\PSoC4/EZI2C_1_EZI2C_INT.c ****                     if(EZI2C_1_EZI2C_COMPLETE_TRANSFER == endTransfer)
 828              		.loc 1 335 0
 829 018c 002A     		cmp	r2, #0
 830 018e 06D1     		bne	.L24
 336:Generated_Source\PSoC4/EZI2C_1_EZI2C_INT.c ****                     {
 337:Generated_Source\PSoC4/EZI2C_1_EZI2C_INT.c ****                         EZI2C_1_ENABLE_SLAVE_AUTO_DATA_NACK;
 831              		.loc 1 337 0
 832 0190 8020     		movs	r0, #128
 833              	.LVL22:
 834 0192 0B68     		ldr	r3, [r1]
 835              	.LVL23:
 836 0194 0002     		lsls	r0, r0, #8
 837 0196 0343     		orrs	r3, r0
 838 0198 0B60     		str	r3, [r1]
 338:Generated_Source\PSoC4/EZI2C_1_EZI2C_INT.c **** 
 339:Generated_Source\PSoC4/EZI2C_1_EZI2C_INT.c ****                         /* Disable INTR_RX_FULL during last RX FIFO chunk reception */
 340:Generated_Source\PSoC4/EZI2C_1_EZI2C_INT.c ****                         EZI2C_1_SetRxInterruptMode(EZI2C_1_NO_INTR_SOURCES);
 839              		.loc 1 340 0
 840 019a 444B     		ldr	r3, .L69+40
 841 019c 1A60     		str	r2, [r3]
 842              	.L24:
 341:Generated_Source\PSoC4/EZI2C_1_EZI2C_INT.c ****                     }
 342:Generated_Source\PSoC4/EZI2C_1_EZI2C_INT.c **** 
 343:Generated_Source\PSoC4/EZI2C_1_EZI2C_INT.c ****                     EZI2C_1_ClearRxInterruptSource(EZI2C_1_INTR_RX_FULL |
 843              		.loc 1 343 0
 844 019e 0C22     		movs	r2, #12
 845              	.LVL24:
 846              	.L66:
 847 01a0 4D4B     		ldr	r3, .L69+84
 848 01a2 1A60     		str	r2, [r3]
 849              	.L8:
 850              	.LVL25:
 344:Generated_Source\PSoC4/EZI2C_1_EZI2C_INT.c ****                                                             EZI2C_1_INTR_RX_NOT_EMPTY);
 345:Generated_Source\PSoC4/EZI2C_1_EZI2C_INT.c ****                 }
 346:Generated_Source\PSoC4/EZI2C_1_EZI2C_INT.c ****                 else
 347:Generated_Source\PSoC4/EZI2C_1_EZI2C_INT.c ****                 {
 348:Generated_Source\PSoC4/EZI2C_1_EZI2C_INT.c ****                     /* Exit for slave interrupts which are not active for RX direction:
 349:Generated_Source\PSoC4/EZI2C_1_EZI2C_INT.c ****                     * INTR_SLAVE.I2C_ADDR_MATCH and INTR_SLAVE.I2C_STOP while byte-by-byte receptio
 350:Generated_Source\PSoC4/EZI2C_1_EZI2C_INT.c ****                     */
 351:Generated_Source\PSoC4/EZI2C_1_EZI2C_INT.c ****                 }
 352:Generated_Source\PSoC4/EZI2C_1_EZI2C_INT.c ****             }
 353:Generated_Source\PSoC4/EZI2C_1_EZI2C_INT.c **** 
 354:Generated_Source\PSoC4/EZI2C_1_EZI2C_INT.c ****             if(0u != (locIntrCause & EZI2C_1_INTR_CAUSE_SLAVE))
 851              		.loc 1 354 0
 852 01a4 0223     		movs	r3, #2
 853 01a6 009A     		ldr	r2, [sp]
ARM GAS  C:\Users\prana\AppData\Local\Temp\cc0fwRa9.s 			page 49


 854 01a8 1A42     		tst	r2, r3
 855 01aa 47D0     		beq	.L25
 355:Generated_Source\PSoC4/EZI2C_1_EZI2C_INT.c ****             {
 356:Generated_Source\PSoC4/EZI2C_1_EZI2C_INT.c ****                 /* INTR_SLAVE.I2C_STOP */
 357:Generated_Source\PSoC4/EZI2C_1_EZI2C_INT.c ****                 /* Catch Stop condition: completion of write or read transfer */
 358:Generated_Source\PSoC4/EZI2C_1_EZI2C_INT.c ****             #if(!EZI2C_1_SECONDARY_ADDRESS_ENABLE_CONST)
 359:Generated_Source\PSoC4/EZI2C_1_EZI2C_INT.c ****                 if(0u != (locIntrSlave & EZI2C_1_INTR_SLAVE_I2C_STOP))
 856              		.loc 1 359 0
 857 01ac EA06     		lsls	r2, r5, #27
 858 01ae 13D5     		bpl	.L26
 360:Generated_Source\PSoC4/EZI2C_1_EZI2C_INT.c ****             #else
 361:Generated_Source\PSoC4/EZI2C_1_EZI2C_INT.c ****                 /* Prevent triggering when matched address was NACKed */
 362:Generated_Source\PSoC4/EZI2C_1_EZI2C_INT.c ****                 if((0u != (locIntrSlave & EZI2C_1_INTR_SLAVE_I2C_STOP)) &&
 363:Generated_Source\PSoC4/EZI2C_1_EZI2C_INT.c ****                    (0u != ((uint8) EZI2C_1_EZI2C_STATUS_BUSY & EZI2C_1_curStatus)))
 364:Generated_Source\PSoC4/EZI2C_1_EZI2C_INT.c ****             #endif
 365:Generated_Source\PSoC4/EZI2C_1_EZI2C_INT.c ****                 {
 366:Generated_Source\PSoC4/EZI2C_1_EZI2C_INT.c ****                     /* Disable TX and RX interrupt sources */
 367:Generated_Source\PSoC4/EZI2C_1_EZI2C_INT.c ****                     EZI2C_1_SetRxInterruptMode(EZI2C_1_NO_INTR_SOURCES);
 859              		.loc 1 367 0
 860 01b0 0022     		movs	r2, #0
 861 01b2 3E49     		ldr	r1, .L69+40
 862 01b4 0A60     		str	r2, [r1]
 368:Generated_Source\PSoC4/EZI2C_1_EZI2C_INT.c ****                     EZI2C_1_SetTxInterruptMode(EZI2C_1_NO_INTR_SOURCES);
 863              		.loc 1 368 0
 864 01b6 3949     		ldr	r1, .L69+24
 865 01b8 0A60     		str	r2, [r1]
 866              	.LVL26:
 369:Generated_Source\PSoC4/EZI2C_1_EZI2C_INT.c **** 
 370:Generated_Source\PSoC4/EZI2C_1_EZI2C_INT.c ****                     /* Set read completion mask */
 371:Generated_Source\PSoC4/EZI2C_1_EZI2C_INT.c ****                     locStatus = EZI2C_1_INTR_SLAVE_I2C_NACK;
 372:Generated_Source\PSoC4/EZI2C_1_EZI2C_INT.c **** 
 373:Generated_Source\PSoC4/EZI2C_1_EZI2C_INT.c ****                     /* Check if buffer content was modified: the address phase resets the locIndex 
 374:Generated_Source\PSoC4/EZI2C_1_EZI2C_INT.c ****                     if(locIndex != EZI2C_1_EZI2C_GET_OFFSET(activeAddress))
 867              		.loc 1 374 0
 868 01ba 394A     		ldr	r2, .L69+28
 869 01bc 1278     		ldrb	r2, [r2]
 870 01be 9442     		cmp	r4, r2
 871 01c0 00D0     		beq	.L27
 375:Generated_Source\PSoC4/EZI2C_1_EZI2C_INT.c ****                     {
 376:Generated_Source\PSoC4/EZI2C_1_EZI2C_INT.c ****                         locStatus |= EZI2C_1_INTR_SLAVE_I2C_WRITE_STOP;
 872              		.loc 1 376 0
 873 01c2 0833     		adds	r3, r3, #8
 874              	.L27:
 875              	.LVL27:
 377:Generated_Source\PSoC4/EZI2C_1_EZI2C_INT.c ****                     }
 378:Generated_Source\PSoC4/EZI2C_1_EZI2C_INT.c **** 
 379:Generated_Source\PSoC4/EZI2C_1_EZI2C_INT.c ****                     /* Complete read or write transaction */
 380:Generated_Source\PSoC4/EZI2C_1_EZI2C_INT.c ****                     locStatus &= locIntrSlave;
 381:Generated_Source\PSoC4/EZI2C_1_EZI2C_INT.c ****                     EZI2C_1_EZI2C_UPDATE_LOC_STATUS(activeAddress, locStatus);
 382:Generated_Source\PSoC4/EZI2C_1_EZI2C_INT.c ****                     locStatus |= (uint32)  EZI2C_1_curStatus;
 876              		.loc 1 382 0
 877 01c4 344A     		ldr	r2, .L69+20
 380:Generated_Source\PSoC4/EZI2C_1_EZI2C_INT.c ****                     EZI2C_1_EZI2C_UPDATE_LOC_STATUS(activeAddress, locStatus);
 878              		.loc 1 380 0
 879 01c6 2B40     		ands	r3, r5
 880              	.LVL28:
 881              		.loc 1 382 0
ARM GAS  C:\Users\prana\AppData\Local\Temp\cc0fwRa9.s 			page 50


 882 01c8 1178     		ldrb	r1, [r2]
 883 01ca 0B43     		orrs	r3, r1
 884              	.LVL29:
 383:Generated_Source\PSoC4/EZI2C_1_EZI2C_INT.c ****                     locStatus &= (uint32) ~EZI2C_1_EZI2C_STATUS_BUSY;
 384:Generated_Source\PSoC4/EZI2C_1_EZI2C_INT.c ****                     EZI2C_1_curStatus = (uint8) locStatus;
 885              		.loc 1 384 0
 886 01cc 2021     		movs	r1, #32
 887 01ce 8B43     		bics	r3, r1
 888              	.LVL30:
 889 01d0 1370     		strb	r3, [r2]
 385:Generated_Source\PSoC4/EZI2C_1_EZI2C_INT.c **** 
 386:Generated_Source\PSoC4/EZI2C_1_EZI2C_INT.c ****                     EZI2C_1_fsmState = EZI2C_1_EZI2C_FSM_IDLE;
 890              		.loc 1 386 0
 891 01d2 0022     		movs	r2, #0
 892 01d4 364B     		ldr	r3, .L69+44
 893 01d6 1A70     		strb	r2, [r3]
 894              	.L26:
 387:Generated_Source\PSoC4/EZI2C_1_EZI2C_INT.c **** 
 388:Generated_Source\PSoC4/EZI2C_1_EZI2C_INT.c ****                     #if(EZI2C_1_SECONDARY_ADDRESS_ENABLE)
 389:Generated_Source\PSoC4/EZI2C_1_EZI2C_INT.c ****                     {
 390:Generated_Source\PSoC4/EZI2C_1_EZI2C_INT.c ****                         /* Store local index into global variable, before address phase */
 391:Generated_Source\PSoC4/EZI2C_1_EZI2C_INT.c ****                         EZI2C_1_EZI2C_SET_INDEX(activeAddress, locIndex);
 392:Generated_Source\PSoC4/EZI2C_1_EZI2C_INT.c ****                     }
 393:Generated_Source\PSoC4/EZI2C_1_EZI2C_INT.c ****                     #endif
 394:Generated_Source\PSoC4/EZI2C_1_EZI2C_INT.c ****                 }
 395:Generated_Source\PSoC4/EZI2C_1_EZI2C_INT.c **** 
 396:Generated_Source\PSoC4/EZI2C_1_EZI2C_INT.c ****                 /* INTR_SLAVE.I2C_ADDR_MATCH */
 397:Generated_Source\PSoC4/EZI2C_1_EZI2C_INT.c ****                 /* The matched address is received: the slave starts its operation.
 398:Generated_Source\PSoC4/EZI2C_1_EZI2C_INT.c ****                 * INTR_SLAVE_I2C_STOP updates the buffer index before the address phase for two add
 399:Generated_Source\PSoC4/EZI2C_1_EZI2C_INT.c ****                 * This is done to update buffer index correctly before the address phase changes it
 400:Generated_Source\PSoC4/EZI2C_1_EZI2C_INT.c ****                 */
 401:Generated_Source\PSoC4/EZI2C_1_EZI2C_INT.c ****                 if(0u != (locIntrSlave & EZI2C_1_INTR_SLAVE_I2C_ADDR_MATCH))
 895              		.loc 1 401 0
 896 01d8 6B06     		lsls	r3, r5, #25
 897 01da 2DD5     		bpl	.L28
 402:Generated_Source\PSoC4/EZI2C_1_EZI2C_INT.c ****                 {
 403:Generated_Source\PSoC4/EZI2C_1_EZI2C_INT.c ****                     #if(EZI2C_1_SECONDARY_ADDRESS_ENABLE)
 404:Generated_Source\PSoC4/EZI2C_1_EZI2C_INT.c ****                     {
 405:Generated_Source\PSoC4/EZI2C_1_EZI2C_INT.c ****                         /* Read address byte from RX FIFO */
 406:Generated_Source\PSoC4/EZI2C_1_EZI2C_INT.c ****                         locByte = EZI2C_1_GET_I2C_7BIT_ADDRESS(EZI2C_1_RX_FIFO_RD_REG);
 407:Generated_Source\PSoC4/EZI2C_1_EZI2C_INT.c **** 
 408:Generated_Source\PSoC4/EZI2C_1_EZI2C_INT.c ****                         EZI2C_1_ClearRxInterruptSource(EZI2C_1_INTR_RX_NOT_EMPTY);
 409:Generated_Source\PSoC4/EZI2C_1_EZI2C_INT.c **** 
 410:Generated_Source\PSoC4/EZI2C_1_EZI2C_INT.c ****                         /* Check received address against device addresses */
 411:Generated_Source\PSoC4/EZI2C_1_EZI2C_INT.c ****                         if(EZI2C_1_addrBuf1 == locByte)
 412:Generated_Source\PSoC4/EZI2C_1_EZI2C_INT.c ****                         {
 413:Generated_Source\PSoC4/EZI2C_1_EZI2C_INT.c ****                             /* Set buffer exposed to primary slave address */
 414:Generated_Source\PSoC4/EZI2C_1_EZI2C_INT.c ****                             EZI2C_1_dataBuffer = EZI2C_1_dataBuffer1;
 415:Generated_Source\PSoC4/EZI2C_1_EZI2C_INT.c ****                             EZI2C_1_bufSizeBuf = EZI2C_1_bufSizeBuf1;
 416:Generated_Source\PSoC4/EZI2C_1_EZI2C_INT.c ****                             EZI2C_1_protectBuf = EZI2C_1_protectBuf1;
 417:Generated_Source\PSoC4/EZI2C_1_EZI2C_INT.c **** 
 418:Generated_Source\PSoC4/EZI2C_1_EZI2C_INT.c ****                             activeAddress = EZI2C_1_EZI2C_ACTIVE_ADDRESS1;
 419:Generated_Source\PSoC4/EZI2C_1_EZI2C_INT.c ****                         }
 420:Generated_Source\PSoC4/EZI2C_1_EZI2C_INT.c ****                         else if(EZI2C_1_addrBuf2 == locByte)
 421:Generated_Source\PSoC4/EZI2C_1_EZI2C_INT.c ****                         {
 422:Generated_Source\PSoC4/EZI2C_1_EZI2C_INT.c ****                             /* Set buffer exposed to secondary slave address */
 423:Generated_Source\PSoC4/EZI2C_1_EZI2C_INT.c ****                             EZI2C_1_dataBuffer = EZI2C_1_dataBuffer2;
ARM GAS  C:\Users\prana\AppData\Local\Temp\cc0fwRa9.s 			page 51


 424:Generated_Source\PSoC4/EZI2C_1_EZI2C_INT.c ****                             EZI2C_1_bufSizeBuf = EZI2C_1_bufSizeBuf2;
 425:Generated_Source\PSoC4/EZI2C_1_EZI2C_INT.c ****                             EZI2C_1_protectBuf = EZI2C_1_protectBuf2;
 426:Generated_Source\PSoC4/EZI2C_1_EZI2C_INT.c **** 
 427:Generated_Source\PSoC4/EZI2C_1_EZI2C_INT.c ****                             activeAddress = EZI2C_1_EZI2C_ACTIVE_ADDRESS2;
 428:Generated_Source\PSoC4/EZI2C_1_EZI2C_INT.c ****                         }
 429:Generated_Source\PSoC4/EZI2C_1_EZI2C_INT.c ****                         else
 430:Generated_Source\PSoC4/EZI2C_1_EZI2C_INT.c ****                         {
 431:Generated_Source\PSoC4/EZI2C_1_EZI2C_INT.c ****                             /* Address does not match */
 432:Generated_Source\PSoC4/EZI2C_1_EZI2C_INT.c ****                             ackResponse = EZI2C_1_EZI2C_NACK_RECEIVED_ADDRESS;
 433:Generated_Source\PSoC4/EZI2C_1_EZI2C_INT.c ****                         }
 434:Generated_Source\PSoC4/EZI2C_1_EZI2C_INT.c ****                     }
 435:Generated_Source\PSoC4/EZI2C_1_EZI2C_INT.c ****                     #endif
 436:Generated_Source\PSoC4/EZI2C_1_EZI2C_INT.c **** 
 437:Generated_Source\PSoC4/EZI2C_1_EZI2C_INT.c ****                 #if(EZI2C_1_SECONDARY_ADDRESS_ENABLE_CONST)
 438:Generated_Source\PSoC4/EZI2C_1_EZI2C_INT.c ****                     if(EZI2C_1_EZI2C_NACK_RECEIVED_ADDRESS == ackResponse)
 439:Generated_Source\PSoC4/EZI2C_1_EZI2C_INT.c ****                     {
 440:Generated_Source\PSoC4/EZI2C_1_EZI2C_INT.c ****                         /* Clear interrupt sources before NACK address */
 441:Generated_Source\PSoC4/EZI2C_1_EZI2C_INT.c ****                         EZI2C_1_ClearI2CExtClkInterruptSource(EZI2C_1_INTR_I2C_EC_WAKE_UP);
 442:Generated_Source\PSoC4/EZI2C_1_EZI2C_INT.c ****                         EZI2C_1_ClearSlaveInterruptSource(EZI2C_1_INTR_SLAVE_ALL);
 443:Generated_Source\PSoC4/EZI2C_1_EZI2C_INT.c **** 
 444:Generated_Source\PSoC4/EZI2C_1_EZI2C_INT.c ****                     #if(!EZI2C_1_CY_SCBIP_V0)
 445:Generated_Source\PSoC4/EZI2C_1_EZI2C_INT.c ****                         /* Disable INTR_I2C_STOP to not trigger after matched address is NACKed. Ti
 446:Generated_Source\PSoC4/EZI2C_1_EZI2C_INT.c ****                         EZI2C_1_DISABLE_INTR_SLAVE(EZI2C_1_INTR_SLAVE_I2C_STOP);
 447:Generated_Source\PSoC4/EZI2C_1_EZI2C_INT.c ****                     #endif /* (!EZI2C_1_CY_SCBIP_V0) */
 448:Generated_Source\PSoC4/EZI2C_1_EZI2C_INT.c **** 
 449:Generated_Source\PSoC4/EZI2C_1_EZI2C_INT.c ****                         /* NACK address byte: it does not match neither primary nor secondary */
 450:Generated_Source\PSoC4/EZI2C_1_EZI2C_INT.c ****                         EZI2C_1_I2C_SLAVE_GENERATE_NACK;
 451:Generated_Source\PSoC4/EZI2C_1_EZI2C_INT.c ****                     }
 452:Generated_Source\PSoC4/EZI2C_1_EZI2C_INT.c ****                     else
 453:Generated_Source\PSoC4/EZI2C_1_EZI2C_INT.c ****                 #endif /* (EZI2C_1_SECONDARY_ADDRESS_ENABLE_CONST) */
 454:Generated_Source\PSoC4/EZI2C_1_EZI2C_INT.c ****                     {
 455:Generated_Source\PSoC4/EZI2C_1_EZI2C_INT.c **** 
 456:Generated_Source\PSoC4/EZI2C_1_EZI2C_INT.c ****                     #if(EZI2C_1_SCB_MODE_UNCONFIG_CONST_CFG)
 457:Generated_Source\PSoC4/EZI2C_1_EZI2C_INT.c ****                         if(!EZI2C_1_SECONDARY_ADDRESS_ENABLE)
 458:Generated_Source\PSoC4/EZI2C_1_EZI2C_INT.c ****                         {
 459:Generated_Source\PSoC4/EZI2C_1_EZI2C_INT.c ****                             /* Set buffer exposed to primary slave address */
 460:Generated_Source\PSoC4/EZI2C_1_EZI2C_INT.c ****                             EZI2C_1_dataBuffer = EZI2C_1_dataBuffer1;
 461:Generated_Source\PSoC4/EZI2C_1_EZI2C_INT.c ****                             EZI2C_1_bufSizeBuf = EZI2C_1_bufSizeBuf1;
 462:Generated_Source\PSoC4/EZI2C_1_EZI2C_INT.c ****                             EZI2C_1_protectBuf = EZI2C_1_protectBuf1;
 463:Generated_Source\PSoC4/EZI2C_1_EZI2C_INT.c **** 
 464:Generated_Source\PSoC4/EZI2C_1_EZI2C_INT.c ****                             activeAddress = EZI2C_1_EZI2C_ACTIVE_ADDRESS1;
 465:Generated_Source\PSoC4/EZI2C_1_EZI2C_INT.c ****                         }
 466:Generated_Source\PSoC4/EZI2C_1_EZI2C_INT.c ****                     #endif /* (EZI2C_1_SCB_MODE_UNCONFIG_CONST_CFG) */
 467:Generated_Source\PSoC4/EZI2C_1_EZI2C_INT.c **** 
 468:Generated_Source\PSoC4/EZI2C_1_EZI2C_INT.c ****                         /* Bus becomes busy after address is received */
 469:Generated_Source\PSoC4/EZI2C_1_EZI2C_INT.c ****                         EZI2C_1_curStatus |= (uint8) EZI2C_1_EZI2C_STATUS_BUSY;
 898              		.loc 1 469 0
 899 01dc 2021     		movs	r1, #32
 900 01de 2E4A     		ldr	r2, .L69+20
 901 01e0 1378     		ldrb	r3, [r2]
 902 01e2 0B43     		orrs	r3, r1
 903 01e4 1370     		strb	r3, [r2]
 470:Generated_Source\PSoC4/EZI2C_1_EZI2C_INT.c **** 
 471:Generated_Source\PSoC4/EZI2C_1_EZI2C_INT.c ****                         /* Slave is read or written: set current offset */
 472:Generated_Source\PSoC4/EZI2C_1_EZI2C_INT.c ****                         locIndex = EZI2C_1_EZI2C_GET_OFFSET(activeAddress);
 904              		.loc 1 472 0
 905 01e6 2E4B     		ldr	r3, .L69+28
ARM GAS  C:\Users\prana\AppData\Local\Temp\cc0fwRa9.s 			page 52


 473:Generated_Source\PSoC4/EZI2C_1_EZI2C_INT.c **** 
 474:Generated_Source\PSoC4/EZI2C_1_EZI2C_INT.c ****                         /* Check transaction direction */
 475:Generated_Source\PSoC4/EZI2C_1_EZI2C_INT.c ****                         if(EZI2C_1_CHECK_I2C_STATUS(EZI2C_1_I2C_STATUS_S_READ))
 906              		.loc 1 475 0
 907 01e8 1039     		subs	r1, r1, #16
 472:Generated_Source\PSoC4/EZI2C_1_EZI2C_INT.c **** 
 908              		.loc 1 472 0
 909 01ea 1C78     		ldrb	r4, [r3]
 910              	.LVL31:
 911              		.loc 1 475 0
 912 01ec 3B4B     		ldr	r3, .L69+88
 913 01ee 1B68     		ldr	r3, [r3]
 914 01f0 0B42     		tst	r3, r1
 915 01f2 11D0     		beq	.L29
 476:Generated_Source\PSoC4/EZI2C_1_EZI2C_INT.c ****                         {
 477:Generated_Source\PSoC4/EZI2C_1_EZI2C_INT.c ****                             /* Calculate slave buffer size */
 478:Generated_Source\PSoC4/EZI2C_1_EZI2C_INT.c ****                             locBufSize = EZI2C_1_bufSizeBuf1 - (uint16) locIndex;
 479:Generated_Source\PSoC4/EZI2C_1_EZI2C_INT.c **** 
 480:Generated_Source\PSoC4/EZI2C_1_EZI2C_INT.c ****                             /* Clear TX FIFO to start fill from offset */
 481:Generated_Source\PSoC4/EZI2C_1_EZI2C_INT.c ****                             EZI2C_1_CLEAR_TX_FIFO;
 916              		.loc 1 481 0
 917 01f4 8020     		movs	r0, #128
 478:Generated_Source\PSoC4/EZI2C_1_EZI2C_INT.c **** 
 918              		.loc 1 478 0
 919 01f6 354B     		ldr	r3, .L69+72
 920 01f8 314A     		ldr	r2, .L69+60
 921 01fa 1B88     		ldrh	r3, [r3]
 922              		.loc 1 481 0
 923 01fc 4002     		lsls	r0, r0, #9
 478:Generated_Source\PSoC4/EZI2C_1_EZI2C_INT.c **** 
 924              		.loc 1 478 0
 925 01fe 1B1B     		subs	r3, r3, r4
 926 0200 1380     		strh	r3, [r2]
 927              		.loc 1 481 0
 928 0202 374B     		ldr	r3, .L69+92
 929 0204 1A68     		ldr	r2, [r3]
 930 0206 0243     		orrs	r2, r0
 931 0208 1A60     		str	r2, [r3]
 932 020a 1868     		ldr	r0, [r3]
 933 020c 354A     		ldr	r2, .L69+96
 934 020e 0240     		ands	r2, r0
 935 0210 1A60     		str	r2, [r3]
 482:Generated_Source\PSoC4/EZI2C_1_EZI2C_INT.c ****                             EZI2C_1_SetTxInterruptMode(EZI2C_1_INTR_TX_EMPTY);
 936              		.loc 1 482 0
 937 0212 224B     		ldr	r3, .L69+24
 938 0214 1960     		str	r1, [r3]
 939 0216 02E0     		b	.L30
 940              	.L29:
 483:Generated_Source\PSoC4/EZI2C_1_EZI2C_INT.c ****                         }
 484:Generated_Source\PSoC4/EZI2C_1_EZI2C_INT.c ****                         else
 485:Generated_Source\PSoC4/EZI2C_1_EZI2C_INT.c ****                         {
 486:Generated_Source\PSoC4/EZI2C_1_EZI2C_INT.c ****                             /* Master writes: enable reception interrupt. The FSM state was set in 
 487:Generated_Source\PSoC4/EZI2C_1_EZI2C_INT.c ****                             EZI2C_1_SetRxInterruptMode(EZI2C_1_INTR_RX_NOT_EMPTY);
 941              		.loc 1 487 0
 942 0218 0422     		movs	r2, #4
 943 021a 244B     		ldr	r3, .L69+40
 944 021c 1A60     		str	r2, [r3]
ARM GAS  C:\Users\prana\AppData\Local\Temp\cc0fwRa9.s 			page 53


 945              	.L30:
 488:Generated_Source\PSoC4/EZI2C_1_EZI2C_INT.c ****                         }
 489:Generated_Source\PSoC4/EZI2C_1_EZI2C_INT.c **** 
 490:Generated_Source\PSoC4/EZI2C_1_EZI2C_INT.c ****                         /* Clear interrupt sources before ACK address */
 491:Generated_Source\PSoC4/EZI2C_1_EZI2C_INT.c ****                         EZI2C_1_ClearI2CExtClkInterruptSource(EZI2C_1_INTR_I2C_EC_WAKE_UP);
 946              		.loc 1 491 0
 947 021e 0122     		movs	r2, #1
 492:Generated_Source\PSoC4/EZI2C_1_EZI2C_INT.c ****                         EZI2C_1_ClearSlaveInterruptSource(EZI2C_1_INTR_SLAVE_ALL);
 493:Generated_Source\PSoC4/EZI2C_1_EZI2C_INT.c **** 
 494:Generated_Source\PSoC4/EZI2C_1_EZI2C_INT.c ****                     #if (!EZI2C_1_CY_SCBIP_V0)
 495:Generated_Source\PSoC4/EZI2C_1_EZI2C_INT.c ****                         /* Enable STOP to trigger after address match is ACKed. Ticket ID#156094 */
 496:Generated_Source\PSoC4/EZI2C_1_EZI2C_INT.c ****                         EZI2C_1_ENABLE_INTR_SLAVE(EZI2C_1_INTR_SLAVE_I2C_STOP);
 948              		.loc 1 496 0
 949 0220 1020     		movs	r0, #16
 491:Generated_Source\PSoC4/EZI2C_1_EZI2C_INT.c ****                         EZI2C_1_ClearSlaveInterruptSource(EZI2C_1_INTR_SLAVE_ALL);
 950              		.loc 1 491 0
 951 0222 314B     		ldr	r3, .L69+100
 952 0224 1A60     		str	r2, [r3]
 492:Generated_Source\PSoC4/EZI2C_1_EZI2C_INT.c ****                         EZI2C_1_ClearSlaveInterruptSource(EZI2C_1_INTR_SLAVE_ALL);
 953              		.loc 1 492 0
 954 0226 0299     		ldr	r1, [sp, #8]
 955 0228 304B     		ldr	r3, .L69+104
 956 022a 0B60     		str	r3, [r1]
 957              		.loc 1 496 0
 958 022c 3049     		ldr	r1, .L69+108
 959 022e 0B68     		ldr	r3, [r1]
 960 0230 0343     		orrs	r3, r0
 961 0232 0B60     		str	r3, [r1]
 497:Generated_Source\PSoC4/EZI2C_1_EZI2C_INT.c ****                     #endif /* (!EZI2C_1_CY_SCBIP_V0) */
 498:Generated_Source\PSoC4/EZI2C_1_EZI2C_INT.c **** 
 499:Generated_Source\PSoC4/EZI2C_1_EZI2C_INT.c ****                         /* ACK the address byte */
 500:Generated_Source\PSoC4/EZI2C_1_EZI2C_INT.c ****                         EZI2C_1_I2C_SLAVE_GENERATE_ACK;
 962              		.loc 1 500 0
 963 0234 234B     		ldr	r3, .L69+64
 964 0236 1A60     		str	r2, [r3]
 965              	.L28:
 501:Generated_Source\PSoC4/EZI2C_1_EZI2C_INT.c ****                     }
 502:Generated_Source\PSoC4/EZI2C_1_EZI2C_INT.c ****                 }
 503:Generated_Source\PSoC4/EZI2C_1_EZI2C_INT.c **** 
 504:Generated_Source\PSoC4/EZI2C_1_EZI2C_INT.c ****                 /* Clear slave interrupt sources */
 505:Generated_Source\PSoC4/EZI2C_1_EZI2C_INT.c ****                 EZI2C_1_ClearSlaveInterruptSource(locIntrSlave);
 966              		.loc 1 505 0
 967 0238 029B     		ldr	r3, [sp, #8]
 968 023a 1D60     		str	r5, [r3]
 969              	.L25:
 506:Generated_Source\PSoC4/EZI2C_1_EZI2C_INT.c ****             }
 507:Generated_Source\PSoC4/EZI2C_1_EZI2C_INT.c **** 
 508:Generated_Source\PSoC4/EZI2C_1_EZI2C_INT.c ****             /* INTR_TX.EMPTY */
 509:Generated_Source\PSoC4/EZI2C_1_EZI2C_INT.c ****             /* Transmits data to the master: loads data into the TX FIFO. The 0xFF sends out if the
 510:Generated_Source\PSoC4/EZI2C_1_EZI2C_INT.c ****             * out the buffer. The address reception with a read flag clears the TX FIFO to be loade
 511:Generated_Source\PSoC4/EZI2C_1_EZI2C_INT.c ****             */
 512:Generated_Source\PSoC4/EZI2C_1_EZI2C_INT.c ****             if(0u != (EZI2C_1_GetInterruptCause() & EZI2C_1_INTR_CAUSE_TX))
 970              		.loc 1 512 0
 971 023c 039B     		ldr	r3, [sp, #12]
 972 023e 1B68     		ldr	r3, [r3]
 973 0240 5B07     		lsls	r3, r3, #29
 974 0242 1AD5     		bpl	.L6
ARM GAS  C:\Users\prana\AppData\Local\Temp\cc0fwRa9.s 			page 54


 513:Generated_Source\PSoC4/EZI2C_1_EZI2C_INT.c ****             {
 514:Generated_Source\PSoC4/EZI2C_1_EZI2C_INT.c ****                 /* Put data into TX FIFO until there is a room */
 515:Generated_Source\PSoC4/EZI2C_1_EZI2C_INT.c ****                 do
 516:Generated_Source\PSoC4/EZI2C_1_EZI2C_INT.c ****                 {
 517:Generated_Source\PSoC4/EZI2C_1_EZI2C_INT.c ****                     /* Check transmit buffer range: locBufSize calculates after address reception *
 518:Generated_Source\PSoC4/EZI2C_1_EZI2C_INT.c ****                     if(0u != locBufSize)
 519:Generated_Source\PSoC4/EZI2C_1_EZI2C_INT.c ****                     {
 520:Generated_Source\PSoC4/EZI2C_1_EZI2C_INT.c ****                         EZI2C_1_TX_FIFO_WR_REG = (uint32) EZI2C_1_dataBuffer1[locIndex];
 521:Generated_Source\PSoC4/EZI2C_1_EZI2C_INT.c ****                         locIndex++;
 522:Generated_Source\PSoC4/EZI2C_1_EZI2C_INT.c ****                         locBufSize--;
 523:Generated_Source\PSoC4/EZI2C_1_EZI2C_INT.c ****                     }
 524:Generated_Source\PSoC4/EZI2C_1_EZI2C_INT.c ****                     else
 525:Generated_Source\PSoC4/EZI2C_1_EZI2C_INT.c ****                     {
 526:Generated_Source\PSoC4/EZI2C_1_EZI2C_INT.c ****                         EZI2C_1_TX_FIFO_WR_REG = EZI2C_1_EZI2C_OVFL_RETURN;
 975              		.loc 1 526 0
 976 0244 FF25     		movs	r5, #255
 977              	.LVL32:
 527:Generated_Source\PSoC4/EZI2C_1_EZI2C_INT.c ****                     }
 528:Generated_Source\PSoC4/EZI2C_1_EZI2C_INT.c ****                 }
 529:Generated_Source\PSoC4/EZI2C_1_EZI2C_INT.c ****                 while(EZI2C_1_EZI2C_FIFO_SIZE != EZI2C_1_GET_TX_FIFO_ENTRIES);
 978              		.loc 1 529 0
 979 0246 1F20     		movs	r0, #31
 518:Generated_Source\PSoC4/EZI2C_1_EZI2C_INT.c ****                     {
 980              		.loc 1 518 0
 981 0248 1D4A     		ldr	r2, .L69+60
 982 024a 2A49     		ldr	r1, .L69+112
 983              	.L33:
 984 024c 1388     		ldrh	r3, [r2]
 985 024e 002B     		cmp	r3, #0
 986 0250 0AD0     		beq	.L31
 520:Generated_Source\PSoC4/EZI2C_1_EZI2C_INT.c ****                         locIndex++;
 987              		.loc 1 520 0
 988 0252 1D4B     		ldr	r3, .L69+68
 989 0254 1B68     		ldr	r3, [r3]
 990 0256 1B19     		adds	r3, r3, r4
 991 0258 1B78     		ldrb	r3, [r3]
 521:Generated_Source\PSoC4/EZI2C_1_EZI2C_INT.c ****                         locBufSize--;
 992              		.loc 1 521 0
 993 025a 0134     		adds	r4, r4, #1
 994              	.LVL33:
 520:Generated_Source\PSoC4/EZI2C_1_EZI2C_INT.c ****                         locIndex++;
 995              		.loc 1 520 0
 996 025c DBB2     		uxtb	r3, r3
 997 025e 0B60     		str	r3, [r1]
 522:Generated_Source\PSoC4/EZI2C_1_EZI2C_INT.c ****                     }
 998              		.loc 1 522 0
 999 0260 1388     		ldrh	r3, [r2]
 1000 0262 013B     		subs	r3, r3, #1
 1001 0264 1380     		strh	r3, [r2]
 1002 0266 00E0     		b	.L32
 1003              	.L31:
 526:Generated_Source\PSoC4/EZI2C_1_EZI2C_INT.c ****                     }
 1004              		.loc 1 526 0
 1005 0268 0D60     		str	r5, [r1]
 1006              	.L32:
 1007              		.loc 1 529 0
 1008 026a 234B     		ldr	r3, .L69+116
ARM GAS  C:\Users\prana\AppData\Local\Temp\cc0fwRa9.s 			page 55


 1009 026c 1B68     		ldr	r3, [r3]
 1010 026e 0340     		ands	r3, r0
 1011 0270 082B     		cmp	r3, #8
 1012 0272 EBD1     		bne	.L33
 530:Generated_Source\PSoC4/EZI2C_1_EZI2C_INT.c **** 
 531:Generated_Source\PSoC4/EZI2C_1_EZI2C_INT.c ****                 EZI2C_1_ClearTxInterruptSource(EZI2C_1_INTR_TX_EMPTY);
 1013              		.loc 1 531 0
 1014 0274 1022     		movs	r2, #16
 1015 0276 214B     		ldr	r3, .L69+120
 1016 0278 1A60     		str	r2, [r3]
 1017              	.L6:
 532:Generated_Source\PSoC4/EZI2C_1_EZI2C_INT.c ****             }
 533:Generated_Source\PSoC4/EZI2C_1_EZI2C_INT.c ****         }
 534:Generated_Source\PSoC4/EZI2C_1_EZI2C_INT.c **** 
 535:Generated_Source\PSoC4/EZI2C_1_EZI2C_INT.c ****         /* Store local index copy into global variable */
 536:Generated_Source\PSoC4/EZI2C_1_EZI2C_INT.c ****         EZI2C_1_EZI2C_SET_INDEX(activeAddress, locIndex);
 1018              		.loc 1 536 0
 1019 027a 019B     		ldr	r3, [sp, #4]
 1020 027c 1C80     		strh	r4, [r3]
 537:Generated_Source\PSoC4/EZI2C_1_EZI2C_INT.c **** 
 538:Generated_Source\PSoC4/EZI2C_1_EZI2C_INT.c ****     #ifdef EZI2C_1_EZI2C_STRETCH_ISR_EXIT_CALLBACK
 539:Generated_Source\PSoC4/EZI2C_1_EZI2C_INT.c ****         EZI2C_1_EZI2C_STRETCH_ISR_ExitCallback();
 540:Generated_Source\PSoC4/EZI2C_1_EZI2C_INT.c ****     #endif /* EZI2C_1_EZI2C_STRETCH_ISR_EXIT_CALLBACK */
 541:Generated_Source\PSoC4/EZI2C_1_EZI2C_INT.c **** 
 542:Generated_Source\PSoC4/EZI2C_1_EZI2C_INT.c ****     }
 1021              		.loc 1 542 0
 1022 027e 05B0     		add	sp, sp, #20
 1023              		@ sp needed
 1024              	.LVL34:
 1025 0280 F0BD     		pop	{r4, r5, r6, r7, pc}
 1026              	.L70:
 1027 0282 C046     		.align	2
 1028              	.L69:
 1029 0284 00000000 		.word	EZI2C_1_customIntrHandler
 1030 0288 400F0640 		.word	1074138944
 1031 028c 000E0640 		.word	1074138624
 1032 0290 00000000 		.word	EZI2C_1_indexBuf1
 1033 0294 00000640 		.word	1074135040
 1034 0298 00000000 		.word	EZI2C_1_curStatus
 1035 029c 880F0640 		.word	1074139016
 1036 02a0 00000000 		.word	EZI2C_1_offsetBuf1
 1037 02a4 60000640 		.word	1074135136
 1038 02a8 FF5FFFFF 		.word	-40961
 1039 02ac C80F0640 		.word	1074139080
 1040 02b0 00000000 		.word	EZI2C_1_fsmState
 1041 02b4 880E0640 		.word	1074138760
 1042 02b8 CC0F0640 		.word	1074139084
 1043 02bc 40030640 		.word	1074135872
 1044 02c0 00000000 		.word	.LANCHOR0
 1045 02c4 6C000640 		.word	1074135148
 1046 02c8 00000000 		.word	EZI2C_1_dataBuffer1
 1047 02cc 00000000 		.word	EZI2C_1_bufSizeBuf1
 1048 02d0 00000000 		.word	EZI2C_1_protectBuf1
 1049 02d4 08030640 		.word	1074135816
 1050 02d8 C00F0640 		.word	1074139072
 1051 02dc 64000640 		.word	1074135140
 1052 02e0 04020640 		.word	1074135556
ARM GAS  C:\Users\prana\AppData\Local\Temp\cc0fwRa9.s 			page 56


 1053 02e4 FFFFFEFF 		.word	-65537
 1054 02e8 800E0640 		.word	1074138752
 1055 02ec FF0F0000 		.word	4095
 1056 02f0 480F0640 		.word	1074138952
 1057 02f4 40020640 		.word	1074135616
 1058 02f8 08020640 		.word	1074135560
 1059 02fc 800F0640 		.word	1074139008
 1060              		.cfi_endproc
 1061              	.LFE0:
 1062              		.size	EZI2C_1_EZI2C_STRETCH_ISR, .-EZI2C_1_EZI2C_STRETCH_ISR
 1063              		.bss
 1064              		.align	1
 1065              		.set	.LANCHOR0,. + 0
 1066              		.type	locBufSize.4886, %object
 1067              		.size	locBufSize.4886, 2
 1068              	locBufSize.4886:
 1069 0000 0000     		.space	2
 1070              		.text
 1071              	.Letext0:
 1072              		.file 2 "Generated_Source\\PSoC4/cytypes.h"
 1073              		.file 3 "Generated_Source\\PSoC4\\EZI2C_1_PVT.h"
 1074              		.file 4 "Generated_Source\\PSoC4\\EZI2C_1_EZI2C_PVT.h"
 1075              		.file 5 "Generated_Source\\PSoC4/CyLib.h"