ARM GAS  C:\Users\prana\AppData\Local\Temp\ccBhKGfs.s 			page 1


   1              		.syntax unified
   2              		.cpu cortex-m0
   3              		.fpu softvfp
   4              		.eabi_attribute 20, 1
   5              		.eabi_attribute 21, 1
   6              		.eabi_attribute 23, 3
   7              		.eabi_attribute 24, 1
   8              		.eabi_attribute 25, 1
   9              		.eabi_attribute 26, 1
  10              		.eabi_attribute 30, 4
  11              		.eabi_attribute 34, 0
  12              		.eabi_attribute 18, 4
  13              		.thumb
  14              		.syntax unified
  15              		.file	"PDSS_PORT0_ISINK_CLK.c"
  16              		.text
  17              	.Ltext0:
  18              		.section	.gnu.lto_.profile.b369b1cb,"",%progbits
  19 0000 789C6361 		.ascii	"x\234ca`d`a`\000\222\2122\000\000\310\000H"
  19      60646061 
  19      6000928A 
  19      320000C8 
  19      0048
  20              		.text
  21              		.section	.gnu.lto_.icf.b369b1cb,"",%progbits
  22 0000 789C6361 		.ascii	"x\234ca`d\000\001y\006\004`e\330pi\302\034N\306\227"
  22      60640001 
  22      79060460 
  22      65D87069 
  22      C21C4EC6 
  23 0015 2DFB4FB1 		.ascii	"-\373O\2611\255:\335\352\303\374r\375\374Y\374,M\315"
  23      31AD3ADD 
  23      EAC3FC72 
  23      FDFC59FC 
  23      2C4DCD
  24 0028 074FB130 		.ascii	"\007O\2610\000\000\337\367\015\241"
  24      0000DFF7 
  24      0DA1
  25              		.text
  26              		.section	.gnu.lto_.jmpfuncs.b369b1cb,"",%progbits
  27 0000 789C6361 		.ascii	"x\234ca`d\000\001q\006\004`e`dd\254\007\21231122\327"
  27      60640001 
  27      71060460 
  27      65606464 
  27      AC078A33 
  28 0019 D7333330 		.ascii	"\327330\260\000\205\001\026\322\001\263"
  28      B0008501 
  28      16D201B3 
  29              		.text
  30              		.section	.gnu.lto_.inline.b369b1cb,"",%progbits
  31 0000 789C458C 		.ascii	"x\234E\214\261\015\2000\014\004\337\216\023B(`\203P"
  31      B10D8030 
  31      0C04DF8E 
  31      13422860 
  31      8350
  32 0012 204A4661 		.ascii	" JFa'6\240\244\314\034L\301(\214\200-\244\344\013K\376"
  32      2736A0A4 
ARM GAS  C:\Users\prana\AppData\Local\Temp\ccBhKGfs.s 			page 2


  32      CC1C4CC1 
  32      288C802D 
  32      A4E40B4B 
  33 0027 F35940B0 		.ascii	"\363Y@\260\034h\361@\277\022aV\344\342}\011B\311\014"
  33      1C68F140 
  33      BF126156 
  33      E4E27D09 
  33      42C90C
  34 003a 29590C13 		.ascii	")Y\014\023\272\205\300\015h\030C\"\306\244\006E\035"
  34      BA85C00D 
  34      68184322 
  34      C6A40645 
  34      1D
  35 004b 92CEFD87 		.ascii	"\222\316\375\207\374\214bj\2643\007/\252\352ZM\375\341"
  35      FC8C626A 
  35      B433072F 
  35      AAEA5A4D 
  35      FDE1
  36 005d B50AEF56 		.ascii	"\265\012\357V+|\2167\015O"
  36      2B7C8E37 
  36      0D4F
  37              		.text
  38              		.section	.gnu.lto_.pureconst.b369b1cb,"",%progbits
  39 0000 789C6361 		.ascii	"x\234ca`d\340f```e\220b\224b\222b\226b\221\002\000\003"
  39      6064E066 
  39      60606065 
  39      90629462 
  39      92629662 
  40 0018 FE00A2   		.ascii	"\376\000\242"
  41              		.text
  42              		.section	.gnu.lto_PDSS_PORT0_ISINK_CLK_StartEx.b369b1cb,"",%progbits
  43 0000 789C5551 		.ascii	"x\234UQMh\023Q\020\236\357\275}\233\325\376\234Ez\350"
  43      4D681351 
  43      109EEFBD 
  43      7D9BD5FE 
  43      9C457AE8 
  44 0014 ADF45214 		.ascii	"\255\364R\024<z\221\024\245V4t=\026B\251A\252\245\205"
  44      3C7A9114 
  44      A5563474 
  44      3D1642A9 
  44      41AAA585 
  45 0028 A25E7DC9 		.ascii	"\242^}\311\3566(\036\004\261`Q\202\202\264Qk\032\305"
  45      EE36281E 
  45      04B16051 
  45      8282B451 
  45      6B1AC5
  46 003b 83788951 		.ascii	"\203x\211Q\021D#\275\330\253V\334\203\247D\253HE\343"
  46      114423BD 
  46      D8AB56DC 
  46      83A744AB 
  46      4845E3
  47 004e 4CB6073B 		.ascii	"L\266\007;\360f\336\014\337\314|\337{\016\201\304z\025"
  47      F066DE0C 
  47      DFCC7CDF 
  47      7B0E81C4 
  47      7A15
  48 0060 D1418E87 		.ascii	"\321A\216\207\371\300%\250\253\015\242\274\247\240\223"
ARM GAS  C:\Users\prana\AppData\Local\Temp\ccBhKGfs.s 			page 3


  48      F9C025A8 
  48      AB0DA2BC 
  48      A7A093
  49 006f 8B56E6CA 		.ascii	"\213V\346\312k\"\273\333\011Sd\273MR?\344\000\022\255"
  49      6B22BBDB 
  49      095364BB 
  49      4D523FE4 
  49      0012AD
  50 0082 07BAA8B4 		.ascii	"\007\272\250\264q\300\236\022\373\241\376(\324\213\361"
  50      71C09E12 
  50      FBA1FE28 
  50      D48BF1
  51 0091 5335B864 		.ascii	"S5\270d\331>~\271\246\355r\015\021\003\332*\301`\011"
  51      D93E7EB9 
  51      A6ED720D 
  51      1103DA2A 
  51      C16009
  52 00a4 838C5A0B 		.ascii	"\203\214Z\013Wo\352M\025i\300\341\264\365n\361s\257"
  52      576FEA4D 
  52      1569C0E1 
  52      B4F56EF1 
  52      73AF
  53 00b6 A40AFD9C 		.ascii	"\244\012\375\234^z\361\363\271\243\367\203\370^\375"
  53      5E7AF1F3 
  53      B9A3F783 
  53      F85EFD
  54 00c5 5E8A7B06 		.ascii	"^\212{\006\356Z[\260\366I\316\356\212\264\306=h\236"
  54      EE5A5BB0 
  54      F649CEEE 
  54      8AB4C63D 
  54      689E
  55 00d7 8732FAB0 		.ascii	"\2072\372\260\214>\342\022\341>\006\004\276Q\375{\275"
  55      8C3EE212 
  55      E13E0604 
  55      BE51FD7B 
  55      BD
  56 00e8 C70D657D 		.ascii	"\307\015e}\177\262\024\017\340\212\342\312X\315\266"
  56      7FB2140F 
  56      E08AE2CA 
  56      58CDB6
  57 00f7 DB81AD55 		.ascii	"\333\201\255U\315\212\366\024w9\232\035+\220^#\271+"
  57      CD8AF614 
  57      77399A1D 
  57      2B905E23 
  57      B92B
  58 0109 8EA8C96D 		.ascii	"\216\250\311m\254\271\251\024\007\335b}\254X\307\250"
  58      ACB9A914 
  58      07DD627D 
  58      AC58C7A8 
  59 0119 6F5DFEF0 		.ascii	"o]\376\360J\313\274@\213\324\205\250\376>%\254\335\016"
  59      4ACBBC40 
  59      8BD485A8 
  59      FE3E25AC 
  59      DD0E
  60 012b D33BB77F 		.ascii	"\323;\267\177\257\233$\2656\264\242\253\030\255\225"
  60      AF9B24B5 
  60      36B4A2AB 
ARM GAS  C:\Users\prana\AppData\Local\Temp\ccBhKGfs.s 			page 4


  60      18AD95
  61 013a BB4BB895 		.ascii	"\273K\270\225\017\371\021Rx\310\204W\2300\241\202\022"
  61      0FF91152 
  61      78C88457 
  61      9830A182 
  61      12
  62 014b 2846E15B 		.ascii	"(F\341[\361\355\336d\240\346\231\364\011a#8\263]\370"
  62      F1EDDE64 
  62      A0E699F4 
  62      09612338 
  62      B35DF8
  63 015e 7F830161 		.ascii	"\177\203\001aU:I\350\031\342\237AK9\302/F\320\234o\304"
  63      553A49E8 
  63      19E29F41 
  63      4B39C22F 
  63      46D09C6F 
  64 0173 26E93281 		.ascii	"&\3512\201\226\305\213\3176\337t\270x\360P\345FF\375"
  64      96C58BCF 
  64      36DF74B8 
  64      78F050E5 
  64      4646FD
  65 0186 9A7FB927 		.ascii	"\232\177\271'\001\011\216A\345\033\033\221# \007\371"
  65      01098E41 
  65      E51B1B91 
  65      232007F9 
  66 0196 BCE51F7D 		.ascii	"\274\345\037}\324\001\326\027Z\225\243\002\334!\200"
  66      D401D617 
  66      5A95A302 
  66      DC2180
  67 01a5 015D3B35 		.ascii	"\001];5<f\015<\213\276\242P[\357\254\337\246\007\246"
  67      3C660D3C 
  67      8BBEA250 
  67      5BEFACDF 
  67      A607A6
  68 01b8 C54F3874 		.ascii	"\305O8t$7\223\233\2338\227;\225\365g\317\317M\346\306"
  68      2437939B 
  68      9B38973B 
  68      95F567CF 
  68      CF4DE6C6 
  69 01cc 33FE6CFA 		.ascii	"3\376l\372\300xf\330\367\263\231\023c'\367eG\374\221"
  69      C07866D8 
  69      F7B39913 
  69      6327F765 
  69      47FC91
  70 01df E3A3D9F4 		.ascii	"\343\243\331\364\261\321\241I\352\232\230\236:=\223"
  70      B1D1A149 
  70      EA9A989E 
  70      3A3D93
  71 01ee 9E3E3B3C 		.ascii	"\236>;<u\341\037\2225\3048"
  71      75E11F92 
  71      35C438
  72              		.text
  73              		.section	.gnu.lto_PDSS_PORT0_ISINK_CLK_Stop.b369b1cb,"",%progbits
  74 0000 789C5590 		.ascii	"x\234U\220;K\003A\024\205\357\231\331M|\376\001Ia\233"
  74      3B4B0341 
  74      1485EF99 
  74      D94D7CFE 
ARM GAS  C:\Users\prana\AppData\Local\Temp\ccBhKGfs.s 			page 5


  74      0149619B 
  75 0014 465258D8 		.ascii	"FRX\330JD\011\212\206\254e HL#h h\355\304\354\022\020"
  75      4A44098A 
  75      86AC6520 
  75      484C2368 
  75      2068EDC4 
  76 002b 0B2DB452 		.ascii	"\013-\264RBl\222\370\304\322.\246\261\221\210\215\202"
  76      426C92F8 
  76      C4D22EA6 
  76      B191888D 
  76      82
  77 003c 20A8600A 		.ascii	" \250`\012\021\362@\033E\343\0356\205^\230\271\273w"
  77      11F2401B 
  77      45E31D36 
  77      855E98B9 
  77      BB77
  78 004e CE9CF331 		.ascii	"\316\234\3631\006\201t-r\013p\037\347\005\017AlV\211"
  78      0681742D 
  78      720B701F 
  78      E7050F41 
  78      6C5689
  79 0061 D25D02D2 		.ascii	"\322]\002\322\375\220\302\334\270$R=\206\355%\325g\272"
  79      FD90C2DC 
  79      B824523D 
  79      86ED25D5 
  79      67BA
  80 0073 F35103D0 		.ascii	"\363Q\003\320]u\201V\2054\015\360Nn}\210o\201J\266v"
  80      5D758156 
  80      85340DF0 
  80      4E6E7D88 
  80      6F814AB6 
  81 0088 2EFC05C5 		.ascii	".\374\005\305\365\370R\017\250b\031\016\013\332\302"
  81      F5F8520F 
  81      A862190E 
  81      0BDAC2
  82 0097 D5A0003F 		.ascii	"\325\240\000?\261\354\371\354g\273\337ck\331\240{\210"
  82      B1ECF9EC 
  82      67BBDF63 
  82      6BD9A07B 
  82      88
  83 00a8 223C9AEC 		.ascii	"\"<\232\3544RV\355vF\225\267\274\027\267^S\220#!ycM"
  83      345256ED 
  83      764695B7 
  83      BC17B75E 
  83      53902321 
  84 00bf 8317C334 		.ascii	"\203\027\3034\204\340&\233\034\314(\262\206\312\347"
  84      84E0269B 
  84      1CCC28B2 
  84      86CAE7
  85 00ce 7A6D7744 		.ascii	"zmwD\033d\244f\330q*\327\336w\341H\011\235\265\237\377"
  85      1B64A466 
  85      D8712AD7 
  85      DE77E148 
  85      099DB59F 
  86 00e3 BA33DD5F 		.ascii	"\2723\335_\245le\360(\353\334\224\372r\330K\333Lg\340"
  86      A56C65F0 
  86      28EBDC94 
ARM GAS  C:\Users\prana\AppData\Local\Temp\ccBhKGfs.s 			page 6


  86      FA72D84B 
  86      DB4C67E0 
  87 00f7 003E94E0 		.ascii	"\000>\224\340c\210C\344@5\254\265\262W\003\256\241d"
  87      638843E4 
  87      4035ACB5 
  87      B25703AE 
  87      A164
  88 0109 4F7A825D 		.ascii	"Oz\202]\315,t\006\177\023\004\010G\372&i<\223\370\311"
  88      CD2C7406 
  88      7F130408 
  88      47FA2669 
  88      3C93F8C9 
  89 011d D01486E6 		.ascii	"\320\024\206\346c\256\367\306[\276[\337\372\027\231"
  89      63AEF7C6 
  89      5BBE5BDF 
  89      FA1799
  90 012c 56AAF77F 		.ascii	"V\252\367\177\3521\247\262\344\276\336z\350\326\256"
  90      EA31A7B2 
  90      E4BEDE7A 
  90      E8D6AE
  91 013b 409A4506 		.ascii	"@\232E\006N\370\364\025k\345\273\011m\322\011\001\233"
  91      4EF8F415 
  91      6BE5BB09 
  91      6DD20901 
  91      9B
  92 014c F3430C4D 		.ascii	"\363C\014M$\226\022\251\271\345\304|\314J\256\244\342"
  92      249612A9 
  92      B9E5C47C 
  92      CC4AAEA4 
  92      E2
  93 015d 8968D84A 		.ascii	"\211h\330J\006\207\243\3411\313\212\205g\"\263\201X"
  93      0687A3E1 
  93      31CB8A85 
  93      6722B381 
  93      58
  94 016e C80A4D4F 		.ascii	"\310\012MO\306\202S\223Cq\372\005\243m\220\370"
  94      C6825393 
  94      4371FA05 
  94      A36D90F8 
  95              		.text
  96              		.section	.gnu.lto_PDSS_PORT0_ISINK_CLK_SetFractionalDividerRegister.b369b1cb,"",%progbits
  97 0000 789C6D52 		.ascii	"x\234mR]H\223a\024~\317\373n\337~\235\336V^x#\342\215"
  97      5D489361 
  97      147ECFFB 
  97      6EDF7E9D 
  97      DE565E78 
  98 0017 2875D145 		.ascii	"(u\321Et\243\024j\224\271\220.\2041\346\010\321\024"
  98      74A3146A 
  98      94B9902E 
  98      8431E608 
  98      D114
  99 0029 9676EB3B 		.ascii	"\226v\353;\267o\312\"\222 )I\204\304\374\327-\3733\005"
  99      B76FCA22 
  99      92202949 
  99      84C4FCD7 
  99      2DFB3305 
 100 003d D7C02EC4 		.ascii	"\327\300.\304\214\376\357,L\014\"j\312\312\020m\235"
ARM GAS  C:\Users\prana\AppData\Local\Temp\ccBhKGfs.s 			page 7


 100      8CFEEF2C 
 100      4C0C226A 
 100      CACA106D 
 100      9D
 101 004e F3BD5A08 		.ascii	"\363\275Z\010\275\260\367\347\354y\236s\316s>\023\003"
 101      BDB0F7E7 
 101      EC799E73 
 101      CE733E13 
 101      03
 102 005f 46AB5530 		.ascii	"F\253U0v\036\317C\370\003\301\200w-1\026\264r\000\272"
 102      761ECF43 
 102      F803C180 
 102      772D3116 
 102      B47200BA 
 103 0073 482BB036 		.ascii	"H+\2606\016m\360\203\357pHv\254M\363\302A\211\353\343"
 103      0E6DF083 
 103      EF704876 
 103      AC4DF3C2 
 103      4189EBE3 
 104 0087 7C7F891C 		.ascii	"|\177\211\034J\200\216\364\0147\224\030\014B!\242\346"
 104      4A808EF4 
 104      0C379418 
 104      0C4221A2 
 104      E6
 105 0098 339B89EC 		.ascii	"3\233\211\3544\327\005\000\221^\245\026{\035\364\344"
 105      34D70500 
 105      915EA516 
 105      7B1DF4E4 
 106 00a8 9083CFC8 		.ascii	"\220\203\317\310\306\373U\247(\001\206\367\321\330\\"
 106      C6FB55A7 
 106      280186F7 
 106      D1D85C
 107 00b7 34BB6040 		.ascii	"4\273`@\312v)3^i\326\205\200\021\020\250\007\303\220"
 107      CA762933 
 107      5E69D685 
 107      801110A8 
 107      07C390
 108 00ca 0B4390CB 		.ascii	"\013C\220\3130\304`\024\012\020\335\021\277{\335%\216"
 108      30C46014 
 108      0A10DD11 
 108      BF7BDD25 
 108      8E
 109 00db 19CC81CE 		.ascii	"\031\314\201\316\2551\330e\276~\346\220\305\2720\301"
 109      AD31D865 
 109      BE7EE690 
 109      C5BA30C1 
 110 00eb 98A21ECE 		.ascii	"\230\242\036\316\205b\"\232\030\214C\001\241_\206c\267"
 110      8562229A 
 110      188C4301 
 110      A15F8663 
 110      B7
 111 00fc 85AAC884 		.ascii	"\205\252\310\204\317\365\347=\237\\\252\242<|~\373\274"
 111      CFF5E73D 
 111      9F5CAAA2 
 111      3C7C7EFB 
 111      BC
 112 010d 7C2D4B54 		.ascii	"|-KT\030\272\337o\312\234\374~\222MLE]\267d\"\234\247"
ARM GAS  C:\Users\prana\AppData\Local\Temp\ccBhKGfs.s 			page 8


 112      18BADF6F 
 112      CA9CFC7E 
 112      924D4C45 
 112      5DB76422 
 113 0123 0B33C494 		.ascii	"\0133\304\224\362$\0265\201E\321B\360\344l\354-\027"
 113      F2241635 
 113      8145D142 
 113      F0E46CEC 
 113      2D17
 114 0135 670DE2C4 		.ascii	"g\015\342\304\325\370\204\266\313\214-8eW\320J\304{"
 114      D5F884B6 
 114      CB8C2D38 
 114      6557D04A 
 114      C47B
 115 0147 FF25AEC4 		.ascii	"\377%\256\304\177\337\310\322\302\344c\036LA>\304!_"
 115      7FDFC8D2 
 115      C2E4631E 
 115      4C413EC4 
 115      215F
 116 0159 B908F741 		.ascii	"\271\010\367A\303\271\360\275\350duBf2!\231\350\263"
 116      C3B9F0BD 
 116      E8647542 
 116      66322199 
 116      E8B3
 117 016b 3FDDB6BB 		.ascii	"?\335\266\2738\266\245\241!\370\257\011\310\0263\005"
 117      38B6A5A1 
 117      21F8AF09 
 117      C8163305 
 118 017b 34DA2CB4 		.ascii	"4\332,\264Y\201Z\266\321\325N\233\2036'3\364Y\012\023"
 118      59815AB6 
 118      D1D54E9B 
 118      83362733 
 118      F4590A13 
 119 018f D04CD739 		.ascii	"\320L\3279\247S\254Ar+\372s\3708\345\014\011\032U\267"
 119      A753AC41 
 119      722BFA73 
 119      F838E50C 
 119      091A55B7 
 120 01a3 9E7C6121 		.ascii	"\236|a!c,FO\351\255\3619\247z\206;\303\222\254\273\""
 120      632C464F 
 120      E9ADF139 
 120      A77A863B 
 120      C392ACBB 
 121 01b8 231F2C7D 		.ascii	"#\037,}\320\033\014\343\344\255\360\020\373z@}\301#"
 121      D01B0CE3 
 121      E4ADF010 
 121      FB7A407D 
 121      C123
 122 01ca E803B606 		.ascii	"\350\003\266\006\241\355\310WP\202Bi\246\243\372\246"
 122      A1EDC857 
 122      50824269 
 122      A6A3FAA6 
 123 01da E1BD0616 		.ascii	"\341\275\006\026x\214\330\025\340F\227\330\003\202\220"
 123      788CD815 
 123      E04697D8 
 123      038290
 124 01e9 D3BED1F1 		.ascii	"\323\276\321\361n\244F\221\314!\034\033\312\244\"\351"
ARM GAS  C:\Users\prana\AppData\Local\Temp\ccBhKGfs.s 			page 9


 124      6EA44691 
 124      CC211C1B 
 124      CAA422E9 
 125 01f9 032A4241 		.ascii	"\003*BA\224\351\231I/\230I\306\006V\230F\031\004\375"
 125      94E99949 
 125      2F9849C6 
 125      06569846 
 125      1904FD
 126 020c 8A2C8DD4 		.ascii	"\212,\215\324*\224\305\310\247)\265\345=5[HX\225\332"
 126      2A94C5C8 
 126      A729B5E5 
 126      3D355B48 
 126      5895DA
 127 021f 9BDDA2EC 		.ascii	"\233\335\242\354\030\244\017y#6\350Tj\002\236(\265\355"
 127      18A40F79 
 127      2336E854 
 127      6A029E28 
 127      B5ED
 128 0231 C8E24105 		.ascii	"\310\342A\005r \216\306\253\257\016[U\345\031\200\231"
 128      72208EC6 
 128      ABAF0E5B 
 128      55E51980 
 128      99
 129 0242 7F398F2A 		.ascii	"\1779\217*\230\323H\353\370\333P\234\032r\"(\331\275"
 129      98D348EB 
 129      F8DB509C 
 129      1A722228 
 129      D9BD
 130 0254 BE7CC746 		.ascii	"\276|\307F\261}\216\005\245t\3547m\026M#\312\027hO\354"
 130      B17D8E05 
 130      A574EC37 
 130      6D164D23 
 130      CA17684F 
 131 0269 5410C1F8 		.ascii	"T\020\301\370BR\034h@8\256\242\223\376&\177\300\333"
 131      42521C68 
 131      4038AEA2 
 131      93FE267F 
 131      C0DB
 132 027b E2AFF3B8 		.ascii	"\342\257\363\270\233[\003>\177m\225\273\271\364HmU\231"
 132      9B5B033E 
 132      7F6D95BB 
 132      B9F4486D 
 132      5599
 133 028d DBEDA93A 		.ascii	"\333\355\251:S}\256\330S\356.?]\351)=UY\344cv_cCY\375"
 133      537DAED8 
 133      53EE2E3F 
 133      5DE9293D 
 133      5559E463 
 134 02a7 E5FA3A7F 		.ascii	"\345\372:\177 \013\257'\002^_K}s\223\267Q\013\370/\324"
 134      200BAF27 
 134      025E5F4B 
 134      7D7393B7 
 134      510BF82F 
 135 02bc 781B2D17 		.ascii	"x\033-\027\275\227\032\360\374\003*\0029\341"
 135      BD971AF0 
 135      FC032A02 
 135      39E1
ARM GAS  C:\Users\prana\AppData\Local\Temp\ccBhKGfs.s 			page 10


 136              		.text
 137              		.section	.gnu.lto_PDSS_PORT0_ISINK_CLK_GetDividerRegister.b369b1cb,"",%progbits
 138 0000 789C2D90 		.ascii	"x\234-\220\301K\002A\024\306\347\233Yu\301\242\356y"
 138      C14B0241 
 138      14C6E79B 
 138      5975C1A2 
 138      EE79
 139 0012 E89817F1 		.ascii	"\350\230\027\361P\177@\030\205\030%nGa\011\333k\202"
 139      507F4018 
 139      8518256E 
 139      476109DB 
 139      6B82
 140 0024 D4D9D1DD 		.ascii	"\324\331\321\335\255\250K\227:\004\342%\260,\225\256"
 140      ADA84B97 
 140      3A04E225 
 140      B02C95AE 
 141 0034 75C8842E 		.ascii	"u\310\204.\021\005\005\321\255\210\360\320\311\304\010"
 141      110505D1 
 141      AD88F0D0 
 141      C9C408
 142 0043 84DAE661 		.ascii	"\204\332\346a\003o\336|3\337{\357\307h\014\214\326\224"
 142      036FDE7C 
 142      33DF7BEF 
 142      C7680C8C 
 142      D694
 143 0055 4A5195C7 		.ascii	"JQ\225\307T@0\360\335;\306\012:\007\350 u\260<G\036"
 143      544030F0 
 143      DD3BC60A 
 143      3A07E820 
 143      75B03C47 
 144 006a 5FFC87E3 		.ascii	"_\374\207\343\332\373n\216\364\270K6%\037:\267\245 "
 144      DAFB6E8E 
 144      F4B84B36 
 144      251F3AB7 
 144      A520
 145 007c 496054C9 		.ascii	"I`T\311\352a\243\253\207+R\026\345\253{>]\260\335\011"
 145      EA61A3AB 
 145      872B5216 
 145      E5AB7B3E 
 145      5DB0DD09 
 146 0090 5770E671 		.ascii	"Wp\346q\206#\204PA\210F\034#\314\224\371\355\354wo\330"
 146      86238450 
 146      4188461C 
 146      23CC94F9 
 146      EDEC776F 
 147 00a5 EF48B5C6 		.ascii	"\357H\265\306\311\242^\252\360\023R#\325\224\236g\313"
 147      C9A25EAA 
 147      F0135223 
 147      D5949E67 
 147      CB
 148 00b6 E663F0EA 		.ascii	"\346c\360\3529\350\003s\205\020\264i\214\332\261\216"
 148      39E80373 
 148      8510B469 
 148      8CDAB18E 
 149 00c6 0A42FBE4 		.ascii	"\012B\373\344\234\262h\243\325\337~\252\247\251\336"
 149      9CB268A3 
 149      D5DF7EAA 
ARM GAS  C:\Users\prana\AppData\Local\Temp\ccBhKGfs.s 			page 11


 149      A7A9DE
 150 00d5 1642F5DE 		.ascii	"\026B\365\336w[\367\001\342\322@\243z\375\332\345\320"
 150      775BF701 
 150      E2D240A3 
 150      7AFDDAE5 
 150      D0
 151 00e6 403A5B8E 		.ascii	"@:[\216\324\324\325\216\334x\011\224Q*8p\205\017\247"
 151      D4D4D58E 
 151      DC780994 
 151      512A3870 
 151      850FA7
 152 00f9 0AEF84F0 		.ascii	"\012\357\204\360PC\031\254\015\273;\313l\201A\273\203"
 152      504319AC 
 152      0DBB3BCB 
 152      6C8141BB 
 152      83
 153 010a 8BDE8D8F 		.ascii	"\213\336\215\217\352\375\320QW\2666\212\335\315w\014"
 153      EAFDD051 
 153      57B6368A 
 153      DDCD770C 
 154 011a 066ACAC7 		.ascii	"\006j\312\307>\300\377\025}i\207\203\310\024gd\316Z"
 154      3EC0FF15 
 154      7D698783 
 154      C8146764 
 154      CE5A
 155 012c B572CB6B 		.ascii	"\265r\313k\326\212id\327s\031+\2354\262\261\311tr\306"
 155      D68A6964 
 155      D773192B 
 155      9D34B2B1 
 155      C97472C6 
 156 0140 30CCE462 		.ascii	"0\314\344bj)j\306\215\370B\302\214\315'\"\031\366\007"
 156      6A296AC6 
 156      8DF842C2 
 156      8CCD2722 
 156      19F607
 157 0153 F73278A6 		.ascii	"\3672x\246"
 158              		.text
 159              		.section	.gnu.lto_PDSS_PORT0_ISINK_CLK_GetFractionalDividerRegister.b369b1cb,"",%progbits
 160 0000 789C2D8F 		.ascii	"x\234-\217\315K\202A\020\306\347\331}M\211\364\037H"
 160      CD4B8241 
 160      10C6E7D9 
 160      7D4D89F4 
 160      1F48
 161 0012 A8AB1791 		.ascii	"\250\253\027\221\352P\3070\0121J|;\205 a^\023\244\316"
 161      EA50C730 
 161      0A314A7C 
 161      3B852061 
 161      5E13A4CE 
 162 0026 AE9F4575 		.ascii	"\256\237Eu\010\242:\205\227@\373\260\217\243\2272!\010"
 162      08A23A85 
 162      9740FBB0 
 162      8FA39732 
 162      2108
 163 0038 82BA79AC 		.ascii	"\202\272y\254(\360\320\251\304\010\244\262Ymawvf~\373"
 163      28F0D0A9 
 163      C408A4B2 
 163      596D6177 
ARM GAS  C:\Users\prana\AppData\Local\Temp\ccBhKGfs.s 			page 12


 163      76667EFB 
 164 004c 3C3B0681 		.ascii	"<;\006\201\364\032\347\340\341\330\317\033\222 \266"
 164      F41AE7E0 
 164      E1D8CF1B 
 164      9220B6
 165 005b EE899236 		.ascii	"\356\211\2226\001\350\213\262\201\022\002\011|\212\037"
 165      01E88BB2 
 165      81120209 
 165      7C8A1F
 166 006a 81BBAFDB 		.ascii	"\201\273\257\333\315^WA\251\224z\276y\035\333+V\220"
 166      CD5E5741 
 166      A9947ABE 
 166      791DDB2B 
 166      5690
 167 007c 95446D41 		.ascii	"\225DmA\030v\302\343\324\022\005\270\210\321\227\213"
 167      1876C2E3 
 167      D41205B8 
 167      88D1978B 
 168 008c DF1D7B4F 		.ascii	"\337\035{OF\361\032\324\000w\212\350\321\226g\301\212"
 168      46F11AD4 
 168      00778AE8 
 168      D19667C1 
 168      8A
 169 009d 6AB7D3AA 		.ascii	"j\267\323\252\222w\\_:\270\224\225\354\313\207\241\017"
 169      92775C5F 
 169      3AB89495 
 169      ECCB87A1 
 169      0F
 170 00ae 0B69457A 		.ascii	"\013iEz\347\027\332\377C\010\035e\035\325\326z\255<"
 170      E717DAFF 
 170      43081D65 
 170      1DD5D67A 
 170      AD3C
 171 00c0 AF45D252 		.ascii	"\257E\322R\262\301n\266\372`m\212\254\024\320~\315V"
 171      B2C16EB6 
 171      FA606D8A 
 171      AC14D07E 
 171      CD56
 172 00d2 E9AAAF9B 		.ascii	"\351\252\257\233f\3262\312\340\322\206\312=Y\363\330"
 172      66D632CA 
 172      E0D286CA 
 172      3D59F3D8 
 173 00e2 4F66F897 		.ascii	"Of\370\227\022Gp\342\020\374G\034#\017\252#\335\230"
 173      124770E2 
 173      10FC471C 
 173      230FAA23 
 173      DD98
 174 00f4 A4B44457 		.ascii	"\244\264DW\256\3328/t\336\033\2208a\214\373\337\271"
 174      AEDA382F 
 174      74DE1B90 
 174      38618CFB 
 174      DFB9
 175 0106 C7F250D7 		.ascii	"\307\362P\327\321`\220\251\355\203\323\262]S\300\000"
 175      D16090A9 
 175      ED83D3B2 
 175      5D53C000 
 176 0116 4A1D2AD5 		.ascii	"J\035*\325X\255\225G\273\224\205Az\203\370\317\2503"
ARM GAS  C:\Users\prana\AppData\Local\Temp\ccBhKGfs.s 			page 13


 176      58AD9547 
 176      BB948541 
 176      7A83F8CF 
 176      A833
 177 0128 08F4003C 		.ascii	"\010\364\000<\216{*\272\024\215/,G\027\303fl%\036\211"
 177      8E7B2ABA 
 177      148D2F2C 
 177      4717C366 
 177      6C251E89 
 178 013c 860266CC 		.ascii	"\206\002f\314;\022\012L\230f80\033\234\363\204}\246"
 178      3B120A4C 
 178      98663830 
 178      1B9CF384 
 178      7DA6
 179 014e 6FC61FF6 		.ascii	"o\306\037\366N\373\335\021\372\003\304\226zf"
 179      4EFBDD11 
 179      FA03C496 
 179      7A66
 180              		.text
 181              		.section	.gnu.lto_.symbol_nodes.b369b1cb,"",%progbits
 182 0000 789C6361 		.ascii	"x\234ca`d\010g\000\002&\206z\006\206\011\347\030@\324"
 182      60640867 
 182      00022686 
 182      7A068609 
 182      E71840D4 
 183 0014 AE0645A0 		.ascii	"\256\006E\240\000c=#\252\000S=\023\252\000s=3\252\000"
 183      00633D23 
 183      AA00533D 
 183      13AA0073 
 183      3D33AA00 
 184 0028 4B3D0B8A 		.ascii	"K=\013\212\000\003\000U/\023\016"
 184      00030055 
 184      2F130E
 185              		.text
 186              		.section	.gnu.lto_.refs.b369b1cb,"",%progbits
 187 0000 789C6361 		.ascii	"x\234ca`\004B \000\000\0009\000\007"
 187      60044220 
 187      00000039 
 187      0007
 188              		.text
 189              		.section	.gnu.lto_.decls.b369b1cb,"",%progbits
 190 0000 789C8D54 		.ascii	"x\234\215ToLSW\024\277\347\275\327*\217V\0141\013[\232"
 190      6F4C5357 
 190      14BFE7BD 
 190      D72A8F56 
 190      0C310B5B 
 191 0015 85F901FA 		.ascii	"\205\371\001\372\251\023Y\214_\226-\201\331\031\027"
 191      A913598C 
 191      5F962D81 
 191      D91917
 192 0024 2176E393 		.ascii	"!v\343\223\011A|Q\222\005L\255f&Kv7\306\006s\037\350"
 192      09417C51 
 192      92054CAD 
 192      66264B76 
 192      37C60673 
 193 003a 87E94A20 		.ascii	"\207\351J c\230\261\"( \250\340\237Z\377\001\"e@\351"
 193      6398B122 
ARM GAS  C:\Users\prana\AppData\Local\Temp\ccBhKGfs.s 			page 14


 193      2820A8E0 
 193      9F5AFF01 
 193      226540E9 
 194 004e 36751B38 		.ascii	"6u\0338F6\243Y\272\315l\003\203o\347\336\367\332\327"
 194      4636A359 
 194      BACD6C03 
 194      836FE7DE 
 194      F7DAD7
 195 0061 E2C3ECA6 		.ascii	"\342\303\354\246\347\275{\317;\347\374~\347O\257D\200"
 195      E7BD7BCF 
 195      3BE7FC7E 
 195      E74FAF44 
 195      80
 196 0072 B0B5D74A 		.ascii	"\260\265\327J\310f\334\276\213\242\342\302#)#\306\262"
 196      C866DCBE 
 196      8BA2E2C2 
 196      232923C6 
 196      B2
 197 0083 A09C4619 		.ascii	"\240\234F\031@\031F\031E\211\220'\027\263\311\320}\263"
 197      40194619 
 197      45899027 
 197      17B3C9D0 
 197      7DB3
 198 0095 51D6A174 		.ascii	"Q\326\241t\243\344\243L\240\304P\246QJt{\320}\226\257"
 198      A3E4A34C 
 198      A0C450A6 
 198      514A747B 
 198      D07D96AF 
 199 00a9 011DB3CC 		.ascii	"\001\035\263\314\3047\3417`\342\307\270\311\313\360"
 199      C437E137 
 199      60E2C7B8 
 199      C9CBF0
 200 00b8 AFA28452 		.ascii	"\257\242\204Rx\230q\0306\211\305r\\\265,\316J\376\243"
 200      78987118 
 200      3689C572 
 200      5CB52CCE 
 200      4AFEA3
 201 00cb 26FE113D 		.ascii	"&\376\021=\207\320S\374\314j\270$\200\332r2\230q\007"
 201      87D053FC 
 201      CC6AB824 
 201      80DA7232 
 201      987107
 202 00de 6E81007A 		.ascii	"n\201\000z\203\010\200\366\004.D\023~\304\215\300\237"
 202      830880F6 
 202      042E4413 
 202      7EC48DC0 
 202      9F
 203 00ef 24A94ABE 		.ascii	"$\251J\276\010{\022\315\236\353\214`\374\227x\253\211"
 203      087B12CD 
 203      9EEB8C60 
 203      FC9778AB 
 203      89
 204 0100 C58318D1 		.ascii	"\305\203\030\321Aw\202$\003\315K\373.\350fD\013.\030"
 204      41778224 
 204      03CD4BFB 
 204      2EE86644 
 204      0B2E18
ARM GAS  C:\Users\prana\AppData\Local\Temp\ccBhKGfs.s 			page 15


 205 0113 0E29F134 		.ascii	"\016)\3614\272)\234 ='H$\275t4|-K\304\230\270\237Y\010"
 205      BA299C20 
 205      3D274824 
 205      BD74347C 
 205      2D4BC498 
 206 012b 6E717551 		.ascii	"nquQ\\\215\224\012\257\030\225\371q\244\243S|(@\276"
 206      5C8D940A 
 206      AF1895F9 
 206      71A4A353 
 206      7C2840BE 
 207 013f 0C2C7C16 		.ascii	"\014,|\026\252\272\037\014.\3305\025\263\030\235\231"
 207      AABA1F0C 
 207      2ED83515 
 207      B3189D99 
 208 014f FF334374 		.ascii	"\3773Ct\362\375\344\207=\315\314:[\006\011\217\177D"
 208      F2FDE487 
 208      3DCDCC3A 
 208      5B06098F 
 208      7F44
 209 0161 9AE6D6E0 		.ascii	"\232\346\326\340q\235\014\271K\2020\025x0c\005\331Y"
 209      719D0CB9 
 209      4B823015 
 209      78306305 
 209      D959
 210 0173 4FE907B4 		.ascii	"O\351\007\264\261\226f\277N\340$8\340\0048\010\364\200"
 210      B19666BF 
 210      4EE02438 
 210      E0043808 
 210      F480
 211 0185 9345EC00 		.ascii	"\223E\354\000\027\201NT\036Ge;#4{\251\367\345AJ\327"
 211      17814E54 
 211      1E47653B 
 211      23347BA9 
 211      F7E5414A 
 212 019a 4237C8D0 		.ascii	"B7\310\320\005\"7\3014\362e\275w\263\375\215\202$\240"
 212      052237C1 
 212      34F265BD 
 212      77B3FD8D 
 212      8224A0
 213 01ad 8619EC92 		.ascii	"\206\031\354\222\230\356\272\372O8K\343!\340q*>\326"
 213      98EEBAFA 
 213      4F384BE3 
 213      21E0712A 
 213      3ED6
 214 01bf 92A9F158 		.ascii	"\222\251\361X\213\307Xs<\232\231s\204\005\247\2654W"
 214      8BC75873 
 214      3C9A9973 
 214      8405A7B5 
 214      3457
 215 01d1 80B267A0 		.ascii	"\200\262g\240\017!O!$\201~\310\301g/HZ\370\205\266\366"
 215      0F214F21 
 215      24817EC8 
 215      C1672F48 
 215      5AF885B6 
 216 01e6 5EFBFA56 		.ascii	"^\373\372V\332\332Cg\243C\371Gji\020\335r\231\031\004"
 216      DADA4367 
 216      A343F947 
ARM GAS  C:\Users\prana\AppData\Local\Temp\ccBhKGfs.s 			page 16


 216      6A6910DD 
 216      72991904 
 217 01fa 0D36B865 		.ascii	"\0156\270e\257\257\341\016V\3734\254G\317\313\367\""
 217      AFAFE10E 
 217      56FB34AC 
 217      47CFCBF7 
 217      22
 218 020b B741A4C0 		.ascii	"\267A\244\300+s?\024P\355+b\236\345\230\273t\310\310"
 218      2B733F14 
 218      50ED2B62 
 218      9EE598BB 
 218      74C8C8
 219 021e ECDD620D 		.ascii	"\354\335b\0151\374x\310F'\320\345Uf\002g\014\2743\251"
 219      31FC78C8 
 219      4627D0E5 
 219      55660267 
 219      0CBC33A9 
 220 0232 78031C2F 		.ascii	"x\003\034/\020\235\251\225\305&\015\257\273\356\227"
 220      109DA995 
 220      C5260DAF 
 220      BBEE97
 221 0241 8ED598B2 		.ascii	"\216\325\230\262\003\373\006)MshM\013\370\347\036g\212"
 221      03FB0629 
 221      4D73684D 
 221      0BF8E71E 
 221      678A
 222 0253 63DC5688 		.ascii	"c\334V\210\316u\336\223\300)\353\345\356\320\312\035"
 222      CE75DE93 
 222      C029EBE5 
 222      EED0CA1D 
 223 0263 C26A5E30 		.ascii	"\302j^0\000\035\254\334\274s\3616j\315!P\350\200\015"
 223      001DACDC 
 223      BC73F136 
 223      6ACD2150 
 223      E8800D
 224 0276 D8B78BD8 		.ascii	"\330\267\213\3307\207\336\267\363\230\3209L\010\001"
 224      3787DEB7 
 224      F398D039 
 224      4C0801
 225 0285 E68F7E71 		.ascii	"\346\217~q\337\312\273\022Jv\345\253\305Gq6\035yl\226"
 225      DFCABB12 
 225      4A76E5AB 
 225      C5477136 
 225      1D796C96 
 226 0299 C4145279 		.ascii	"\304\024Ry\032\251\340\227C}\2628\245\221\372\275\177"
 226      1AA9E097 
 226      437DB238 
 226      A591FABD 
 226      7F
 227 02aa F87B7B62 		.ascii	"\370{{bX\260d\262\223$\013\006\327\0204O\007\275\214"
 227      58B064B2 
 227      93240B06 
 227      D710344F 
 227      07BD8C
 228 02bd CA706258 		.ascii	"\312pbX\302\337>O\005\270\212\220W\014\352y\372\244"
 228      C2DF3E4F 
 228      05B88A90 
ARM GAS  C:\Users\prana\AppData\Local\Temp\ccBhKGfs.s 			page 17


 228      570CEA79 
 228      FAA4
 229 02cf 8C4DA841 		.ascii	"\214M\250A\033\347\304\014.\001'\365\333\342\242\264"
 229      1BE7C40C 
 229      2E0127F5 
 229      DBE2A2B4 
 230 02df 625F8678 		.ascii	"b_\206x_\256'f\241\337\337\331*&f\341#\367\317\247("
 230      5FAE2766 
 230      A1DFDFD9 
 230      2A2666E1 
 230      23F7CFA7 
 231 02f4 AD433F89 		.ascii	"\255C?\211\331\301\240\0018\230\332\234a\336\234\357"
 231      D9C1A001 
 231      3898DA9C 
 231      61DE9CEF 
 232 0304 9AA7CE4B 		.ascii	"\232\247\316K\342-\2559\017\257t\375\225\006\312\370"
 232      E22DAD39 
 232      0FAF74FD 
 232      9506CAF8 
 233 0314 18A837D2 		.ascii	"\030\2507\322\246a\274\241\356cI\037\207\311\303\266"
 233      A661BCA1 
 233      EE63491F 
 233      87C9C3B6 
 234 0324 000D633D 		.ascii	"\000\015c=0I\264\202\021\003s$\025s\224c\316\327\375"
 234      3049B482 
 234      11037324 
 234      15739463 
 234      CED7FD
 235 0337 F0AB5D7C 		.ascii	"\360\253]|_\373\207\2674\036;\2366\364\2414\314\261"
 235      5FFB87B7 
 235      341E3B9E 
 235      36F4A134 
 235      CCB1
 236 0349 34CC987A 		.ascii	"4\314\230zq\332\242c\266\214\213IL\264\202\233\006\346"
 236      71DAA263 
 236      B68C8B49 
 236      4CB4829B 
 236      06E6
 237 035b CD54CC08 		.ascii	"\315T\314\010\303\024\217\235x\324\276\006\243\262\237"
 237      C3148F9D 
 237      78D4BE06 
 237      A3B29F
 238 036a DC44B17B 		.ascii	"\334D\261{qU}OUW\301\004\310\204+\250\277\255\270\336"
 238      71557D4F 
 238      5557C104 
 238      C8842BA8 
 238      BFADB8DE 
 239 037e FF1C57D4 		.ascii	"\377\034W\324\363+'\375* \374\013\201o\360<\316\272"
 239      F32B27FD 
 239      2A20FC0B 
 239      816FF03C 
 239      CEBA
 240 0390 8D47E4D4 		.ascii	"\215G\344\324p\367\263\333\026\271\236\261\377?w\007"
 240      70F7B3DB 
 240      16B99EB1 
 240      FF3F7707 
 241 03a0 7A9CFB89 		.ascii	"z\234\373\2116[\304>\236\277\020;|\366s\321\030\362"
ARM GAS  C:\Users\prana\AppData\Local\Temp\ccBhKGfs.s 			page 18


 241      365BC43E 
 241      9EBF103B 
 241      7CF673D1 
 241      18F2
 242 03b2 85127F03 		.ascii	"\205\022\177\003\313h\032\2530ed4\011\372\230?\011\022"
 242      CB681AAB 
 242      30656434 
 242      09FA983F 
 242      0912
 243 03c4 3507F9FB 		.ascii	"5\007\371\373\337\033\237\332l\237$\2574\036\321H%\006"
 243      DF1B9FDA 
 243      6C9F24AF 
 243      341ED148 
 243      2506
 244 03d6 367EF3B2 		.ascii	"6~\363\262\267\243\264\330\343)/-\331\361\346\206\362"
 244      B7A3B4D8 
 244      E3292F2D 
 244      D9F1E686 
 244      F2
 245 03e7 AD9EADDB 		.ascii	"\255\236\255\333\267\225\027\275\261\255\334\343\253"
 245      B79517BD 
 245      B1ADDCE3 
 245      AB
 246 03f4 F0FA5E7B 		.ascii	"\360\372^{g\265{\373[\271E\005\005\304z\240\252\332"
 246      67B57BFB 
 246      5BB94505 
 246      05C47AA0 
 246      AADA
 247 0406 57B8F105 		.ascii	"W\270\361\005\267R\255x+|\312\356rO\315\001o\245\262"
 247      B752AD78 
 247      2B7CCAEE 
 247      724FCD01 
 247      6FA5B2
 248 0419 B3D45353 		.ascii	"\263\324SS\364\322\213\225\207|\207\366)\373]{\211\313"
 248      F4D28B95 
 248      877C87F6 
 248      29FB5D7B 
 248      89CB
 249 042b DC62A719 		.ascii	"\334b\247\031\212\253\222<\273\002z\315\276\002\363"
 249      8AAB923C 
 249      BB027ACD 
 249      BE02F3
 250 043a 2F8A6F8B 		.ascii	"/\212o\213\267\242\322WUS]\361vq\325\301\252\335\212"
 250      B7A2D257 
 250      55535DF1 
 250      7671D5C1 
 250      AADD8A
 251 044d 7787B2A7 		.ascii	"w\207\262\247j\277O\361Z\030\307\315\234i\301\246|S"
 251      6ABF4FF1 
 251      5A18C7CD 
 251      9C69C1A6 
 251      7C53
 252 045f 77B7E25B 		.ascii	"w\267\342[\346d\016\343~\032\214W\331S\270\361?\304"
 252      E6640EE3 
 252      7E1A8C57 
 252      D953B8F1 
 252      3FC4
ARM GAS  C:\Users\prana\AppData\Local\Temp\ccBhKGfs.s 			page 19


 253 0471 A6517E   		.ascii	"\246Q~"
 254              		.text
 255              		.section	.gnu.lto_.symtab.b369b1cb,"",%progbits
 256 0000 50445353 		.ascii	"PDSS_PORT0_ISINK_CLK_StartEx\000"
 256      5F504F52 
 256      54305F49 
 256      53494E4B 
 256      5F434C4B 
 257 001d 00       		.ascii	"\000"
 258 001e 00       		.ascii	"\000"
 259 001f 00       		.ascii	"\000"
 260 0020 00000000 		.ascii	"\000\000\000\000\000\000\000\000"
 260      00000000 
 261 0028 B5000000 		.ascii	"\265\000\000\000"
 262 002c 50445353 		.ascii	"PDSS_PORT0_ISINK_CLK_Stop\000"
 262      5F504F52 
 262      54305F49 
 262      53494E4B 
 262      5F434C4B 
 263 0046 00       		.ascii	"\000"
 264 0047 00       		.ascii	"\000"
 265 0048 00       		.ascii	"\000"
 266 0049 00000000 		.ascii	"\000\000\000\000\000\000\000\000"
 266      00000000 
 267 0051 B8000000 		.ascii	"\270\000\000\000"
 268 0055 50445353 		.ascii	"PDSS_PORT0_ISINK_CLK_SetFractionalDividerRegister\000"
 268      5F504F52 
 268      54305F49 
 268      53494E4B 
 268      5F434C4B 
 269 0087 00       		.ascii	"\000"
 270 0088 00       		.ascii	"\000"
 271 0089 00       		.ascii	"\000"
 272 008a 00000000 		.ascii	"\000\000\000\000\000\000\000\000"
 272      00000000 
 273 0092 C7000000 		.ascii	"\307\000\000\000"
 274 0096 50445353 		.ascii	"PDSS_PORT0_ISINK_CLK_GetDividerRegister\000"
 274      5F504F52 
 274      54305F49 
 274      53494E4B 
 274      5F434C4B 
 275 00be 00       		.ascii	"\000"
 276 00bf 00       		.ascii	"\000"
 277 00c0 00       		.ascii	"\000"
 278 00c1 00000000 		.ascii	"\000\000\000\000\000\000\000\000"
 278      00000000 
 279 00c9 CA000000 		.ascii	"\312\000\000\000"
 280 00cd 50445353 		.ascii	"PDSS_PORT0_ISINK_CLK_GetFractionalDividerRegister\000"
 280      5F504F52 
 280      54305F49 
 280      53494E4B 
 280      5F434C4B 
 281 00ff 00       		.ascii	"\000"
 282 0100 00       		.ascii	"\000"
 283 0101 00       		.ascii	"\000"
 284 0102 00000000 		.ascii	"\000\000\000\000\000\000\000\000"
 284      00000000 
ARM GAS  C:\Users\prana\AppData\Local\Temp\ccBhKGfs.s 			page 20


 285 010a CD000000 		.ascii	"\315\000\000\000"
 286              		.text
 287              		.section	.gnu.lto_.opts,"",%progbits
 288 0000 272D666D 		.ascii	"'-fmath-errno' '-fsigned-zeros' '-ftrapping-math' '"
 288      6174682D 
 288      6572726E 
 288      6F272027 
 288      2D667369 
 289 0033 2D666E6F 		.ascii	"-fno-trapv' '-fno-openmp' '-fno-openacc' '-mcpu=cor"
 289      2D747261 
 289      70762720 
 289      272D666E 
 289      6F2D6F70 
 290 0066 7465782D 		.ascii	"tex-m0' '-mthumb' '-g' '-Os' '-Werror' '-ffunction-"
 290      6D302720 
 290      272D6D74 
 290      68756D62 
 290      2720272D 
 291 0099 73656374 		.ascii	"sections' '-ffat-lto-objects' '-finline-functions' "
 291      696F6E73 
 291      2720272D 
 291      66666174 
 291      2D6C746F 
 292 00cc 272D666C 		.ascii	"'-flto' '-fno-strict-aliasing'\000"
 292      746F2720 
 292      272D666E 
 292      6F2D7374 
 292      72696374 
 293              		.text
 294              		.cfi_sections	.debug_frame
 295              		.section	.text.PDSS_PORT0_ISINK_CLK_StartEx,"ax",%progbits
 296              		.align	1
 297              		.global	PDSS_PORT0_ISINK_CLK_StartEx
 298              		.code	16
 299              		.thumb_func
 300              		.type	PDSS_PORT0_ISINK_CLK_StartEx, %function
 301              	PDSS_PORT0_ISINK_CLK_StartEx:
 302              	.LFB0:
 303              		.file 1 "Generated_Source\\PSoC4\\PDSS_PORT0_ISINK_CLK.c"
   1:Generated_Source\PSoC4/PDSS_PORT0_ISINK_CLK.c **** /*******************************************************************************
   2:Generated_Source\PSoC4/PDSS_PORT0_ISINK_CLK.c **** * File Name: PDSS_PORT0_ISINK_CLK.c
   3:Generated_Source\PSoC4/PDSS_PORT0_ISINK_CLK.c **** * Version 2.20
   4:Generated_Source\PSoC4/PDSS_PORT0_ISINK_CLK.c **** *
   5:Generated_Source\PSoC4/PDSS_PORT0_ISINK_CLK.c **** *  Description:
   6:Generated_Source\PSoC4/PDSS_PORT0_ISINK_CLK.c **** *   Provides system API for the clocking, interrupts and watchdog timer.
   7:Generated_Source\PSoC4/PDSS_PORT0_ISINK_CLK.c **** *
   8:Generated_Source\PSoC4/PDSS_PORT0_ISINK_CLK.c **** *  Note:
   9:Generated_Source\PSoC4/PDSS_PORT0_ISINK_CLK.c **** *   Documentation of the API's in this file is located in the
  10:Generated_Source\PSoC4/PDSS_PORT0_ISINK_CLK.c **** *   System Reference Guide provided with PSoC Creator.
  11:Generated_Source\PSoC4/PDSS_PORT0_ISINK_CLK.c **** *
  12:Generated_Source\PSoC4/PDSS_PORT0_ISINK_CLK.c **** ********************************************************************************
  13:Generated_Source\PSoC4/PDSS_PORT0_ISINK_CLK.c **** * Copyright 2008-2012, Cypress Semiconductor Corporation.  All rights reserved.
  14:Generated_Source\PSoC4/PDSS_PORT0_ISINK_CLK.c **** * You may use this file only in accordance with the license, terms, conditions,
  15:Generated_Source\PSoC4/PDSS_PORT0_ISINK_CLK.c **** * disclaimers, and limitations in the end user license agreement accompanying
  16:Generated_Source\PSoC4/PDSS_PORT0_ISINK_CLK.c **** * the software package with which this file was provided.
  17:Generated_Source\PSoC4/PDSS_PORT0_ISINK_CLK.c **** *******************************************************************************/
  18:Generated_Source\PSoC4/PDSS_PORT0_ISINK_CLK.c **** 
ARM GAS  C:\Users\prana\AppData\Local\Temp\ccBhKGfs.s 			page 21


  19:Generated_Source\PSoC4/PDSS_PORT0_ISINK_CLK.c **** #include <cydevice_trm.h>
  20:Generated_Source\PSoC4/PDSS_PORT0_ISINK_CLK.c **** #include "PDSS_PORT0_ISINK_CLK.h"
  21:Generated_Source\PSoC4/PDSS_PORT0_ISINK_CLK.c **** 
  22:Generated_Source\PSoC4/PDSS_PORT0_ISINK_CLK.c **** #if defined CYREG_PERI_DIV_CMD
  23:Generated_Source\PSoC4/PDSS_PORT0_ISINK_CLK.c **** 
  24:Generated_Source\PSoC4/PDSS_PORT0_ISINK_CLK.c **** /*******************************************************************************
  25:Generated_Source\PSoC4/PDSS_PORT0_ISINK_CLK.c **** * Function Name: PDSS_PORT0_ISINK_CLK_StartEx
  26:Generated_Source\PSoC4/PDSS_PORT0_ISINK_CLK.c **** ********************************************************************************
  27:Generated_Source\PSoC4/PDSS_PORT0_ISINK_CLK.c **** *
  28:Generated_Source\PSoC4/PDSS_PORT0_ISINK_CLK.c **** * Summary:
  29:Generated_Source\PSoC4/PDSS_PORT0_ISINK_CLK.c **** *  Starts the clock, aligned to the specified running clock.
  30:Generated_Source\PSoC4/PDSS_PORT0_ISINK_CLK.c **** *
  31:Generated_Source\PSoC4/PDSS_PORT0_ISINK_CLK.c **** * Parameters:
  32:Generated_Source\PSoC4/PDSS_PORT0_ISINK_CLK.c **** *  alignClkDiv:  The divider to which phase alignment is performed when the
  33:Generated_Source\PSoC4/PDSS_PORT0_ISINK_CLK.c **** *    clock is started.
  34:Generated_Source\PSoC4/PDSS_PORT0_ISINK_CLK.c **** *
  35:Generated_Source\PSoC4/PDSS_PORT0_ISINK_CLK.c **** * Returns:
  36:Generated_Source\PSoC4/PDSS_PORT0_ISINK_CLK.c **** *  None
  37:Generated_Source\PSoC4/PDSS_PORT0_ISINK_CLK.c **** *
  38:Generated_Source\PSoC4/PDSS_PORT0_ISINK_CLK.c **** *******************************************************************************/
  39:Generated_Source\PSoC4/PDSS_PORT0_ISINK_CLK.c **** void PDSS_PORT0_ISINK_CLK_StartEx(uint32 alignClkDiv)
  40:Generated_Source\PSoC4/PDSS_PORT0_ISINK_CLK.c **** {
 304              		.loc 1 40 0
 305              		.cfi_startproc
 306              		@ args = 0, pretend = 0, frame = 0
 307              		@ frame_needed = 0, uses_anonymous_args = 0
 308              		@ link register save eliminated.
 309              	.LVL0:
  41:Generated_Source\PSoC4/PDSS_PORT0_ISINK_CLK.c ****     /* Make sure any previous start command has finished. */
  42:Generated_Source\PSoC4/PDSS_PORT0_ISINK_CLK.c ****     while((PDSS_PORT0_ISINK_CLK_CMD_REG & PDSS_PORT0_ISINK_CLK_CMD_ENABLE_MASK) != 0u)
 310              		.loc 1 42 0
 311 0000 044A     		ldr	r2, .L5
 312              	.L2:
 313              		.loc 1 42 0 is_stmt 0 discriminator 1
 314 0002 1368     		ldr	r3, [r2]
 315 0004 002B     		cmp	r3, #0
 316 0006 FCDB     		blt	.L2
  43:Generated_Source\PSoC4/PDSS_PORT0_ISINK_CLK.c ****     {
  44:Generated_Source\PSoC4/PDSS_PORT0_ISINK_CLK.c ****     }
  45:Generated_Source\PSoC4/PDSS_PORT0_ISINK_CLK.c ****     
  46:Generated_Source\PSoC4/PDSS_PORT0_ISINK_CLK.c ****     /* Specify the target divider and it's alignment divider, and enable. */
  47:Generated_Source\PSoC4/PDSS_PORT0_ISINK_CLK.c ****     PDSS_PORT0_ISINK_CLK_CMD_REG =
  48:Generated_Source\PSoC4/PDSS_PORT0_ISINK_CLK.c ****         ((uint32)PDSS_PORT0_ISINK_CLK__DIV_ID << PDSS_PORT0_ISINK_CLK_CMD_DIV_SHIFT)|
  49:Generated_Source\PSoC4/PDSS_PORT0_ISINK_CLK.c ****         (alignClkDiv << PDSS_PORT0_ISINK_CLK_CMD_PA_DIV_SHIFT) |
 317              		.loc 1 49 0 is_stmt 1
 318 0008 034B     		ldr	r3, .L5+4
 319 000a 0002     		lsls	r0, r0, #8
 320              	.LVL1:
 321 000c 1843     		orrs	r0, r3
  47:Generated_Source\PSoC4/PDSS_PORT0_ISINK_CLK.c ****         ((uint32)PDSS_PORT0_ISINK_CLK__DIV_ID << PDSS_PORT0_ISINK_CLK_CMD_DIV_SHIFT)|
 322              		.loc 1 47 0
 323 000e 014B     		ldr	r3, .L5
  50:Generated_Source\PSoC4/PDSS_PORT0_ISINK_CLK.c ****         (uint32)PDSS_PORT0_ISINK_CLK_CMD_ENABLE_MASK;
  51:Generated_Source\PSoC4/PDSS_PORT0_ISINK_CLK.c **** }
 324              		.loc 1 51 0
 325              		@ sp needed
  47:Generated_Source\PSoC4/PDSS_PORT0_ISINK_CLK.c ****         ((uint32)PDSS_PORT0_ISINK_CLK__DIV_ID << PDSS_PORT0_ISINK_CLK_CMD_DIV_SHIFT)|
ARM GAS  C:\Users\prana\AppData\Local\Temp\ccBhKGfs.s 			page 22


 326              		.loc 1 47 0
 327 0010 1860     		str	r0, [r3]
 328              		.loc 1 51 0
 329 0012 7047     		bx	lr
 330              	.L6:
 331              		.align	2
 332              	.L5:
 333 0014 00000140 		.word	1073807360
 334 0018 81000080 		.word	-2147483519
 335              		.cfi_endproc
 336              	.LFE0:
 337              		.size	PDSS_PORT0_ISINK_CLK_StartEx, .-PDSS_PORT0_ISINK_CLK_StartEx
 338              		.section	.text.PDSS_PORT0_ISINK_CLK_Stop,"ax",%progbits
 339              		.align	1
 340              		.global	PDSS_PORT0_ISINK_CLK_Stop
 341              		.code	16
 342              		.thumb_func
 343              		.type	PDSS_PORT0_ISINK_CLK_Stop, %function
 344              	PDSS_PORT0_ISINK_CLK_Stop:
 345              	.LFB1:
  52:Generated_Source\PSoC4/PDSS_PORT0_ISINK_CLK.c **** 
  53:Generated_Source\PSoC4/PDSS_PORT0_ISINK_CLK.c **** #else
  54:Generated_Source\PSoC4/PDSS_PORT0_ISINK_CLK.c **** 
  55:Generated_Source\PSoC4/PDSS_PORT0_ISINK_CLK.c **** /*******************************************************************************
  56:Generated_Source\PSoC4/PDSS_PORT0_ISINK_CLK.c **** * Function Name: PDSS_PORT0_ISINK_CLK_Start
  57:Generated_Source\PSoC4/PDSS_PORT0_ISINK_CLK.c **** ********************************************************************************
  58:Generated_Source\PSoC4/PDSS_PORT0_ISINK_CLK.c **** *
  59:Generated_Source\PSoC4/PDSS_PORT0_ISINK_CLK.c **** * Summary:
  60:Generated_Source\PSoC4/PDSS_PORT0_ISINK_CLK.c **** *  Starts the clock.
  61:Generated_Source\PSoC4/PDSS_PORT0_ISINK_CLK.c **** *
  62:Generated_Source\PSoC4/PDSS_PORT0_ISINK_CLK.c **** * Parameters:
  63:Generated_Source\PSoC4/PDSS_PORT0_ISINK_CLK.c **** *  None
  64:Generated_Source\PSoC4/PDSS_PORT0_ISINK_CLK.c **** *
  65:Generated_Source\PSoC4/PDSS_PORT0_ISINK_CLK.c **** * Returns:
  66:Generated_Source\PSoC4/PDSS_PORT0_ISINK_CLK.c **** *  None
  67:Generated_Source\PSoC4/PDSS_PORT0_ISINK_CLK.c **** *
  68:Generated_Source\PSoC4/PDSS_PORT0_ISINK_CLK.c **** *******************************************************************************/
  69:Generated_Source\PSoC4/PDSS_PORT0_ISINK_CLK.c **** 
  70:Generated_Source\PSoC4/PDSS_PORT0_ISINK_CLK.c **** void PDSS_PORT0_ISINK_CLK_Start(void)
  71:Generated_Source\PSoC4/PDSS_PORT0_ISINK_CLK.c **** {
  72:Generated_Source\PSoC4/PDSS_PORT0_ISINK_CLK.c ****     /* Set the bit to enable the clock. */
  73:Generated_Source\PSoC4/PDSS_PORT0_ISINK_CLK.c ****     PDSS_PORT0_ISINK_CLK_ENABLE_REG |= PDSS_PORT0_ISINK_CLK__ENABLE_MASK;
  74:Generated_Source\PSoC4/PDSS_PORT0_ISINK_CLK.c **** }
  75:Generated_Source\PSoC4/PDSS_PORT0_ISINK_CLK.c **** 
  76:Generated_Source\PSoC4/PDSS_PORT0_ISINK_CLK.c **** #endif /* CYREG_PERI_DIV_CMD */
  77:Generated_Source\PSoC4/PDSS_PORT0_ISINK_CLK.c **** 
  78:Generated_Source\PSoC4/PDSS_PORT0_ISINK_CLK.c **** 
  79:Generated_Source\PSoC4/PDSS_PORT0_ISINK_CLK.c **** /*******************************************************************************
  80:Generated_Source\PSoC4/PDSS_PORT0_ISINK_CLK.c **** * Function Name: PDSS_PORT0_ISINK_CLK_Stop
  81:Generated_Source\PSoC4/PDSS_PORT0_ISINK_CLK.c **** ********************************************************************************
  82:Generated_Source\PSoC4/PDSS_PORT0_ISINK_CLK.c **** *
  83:Generated_Source\PSoC4/PDSS_PORT0_ISINK_CLK.c **** * Summary:
  84:Generated_Source\PSoC4/PDSS_PORT0_ISINK_CLK.c **** *  Stops the clock and returns immediately. This API does not require the
  85:Generated_Source\PSoC4/PDSS_PORT0_ISINK_CLK.c **** *  source clock to be running but may return before the hardware is actually
  86:Generated_Source\PSoC4/PDSS_PORT0_ISINK_CLK.c **** *  disabled.
  87:Generated_Source\PSoC4/PDSS_PORT0_ISINK_CLK.c **** *
  88:Generated_Source\PSoC4/PDSS_PORT0_ISINK_CLK.c **** * Parameters:
ARM GAS  C:\Users\prana\AppData\Local\Temp\ccBhKGfs.s 			page 23


  89:Generated_Source\PSoC4/PDSS_PORT0_ISINK_CLK.c **** *  None
  90:Generated_Source\PSoC4/PDSS_PORT0_ISINK_CLK.c **** *
  91:Generated_Source\PSoC4/PDSS_PORT0_ISINK_CLK.c **** * Returns:
  92:Generated_Source\PSoC4/PDSS_PORT0_ISINK_CLK.c **** *  None
  93:Generated_Source\PSoC4/PDSS_PORT0_ISINK_CLK.c **** *
  94:Generated_Source\PSoC4/PDSS_PORT0_ISINK_CLK.c **** *******************************************************************************/
  95:Generated_Source\PSoC4/PDSS_PORT0_ISINK_CLK.c **** void PDSS_PORT0_ISINK_CLK_Stop(void)
  96:Generated_Source\PSoC4/PDSS_PORT0_ISINK_CLK.c **** {
 346              		.loc 1 96 0
 347              		.cfi_startproc
 348              		@ args = 0, pretend = 0, frame = 0
 349              		@ frame_needed = 0, uses_anonymous_args = 0
 350              		@ link register save eliminated.
  97:Generated_Source\PSoC4/PDSS_PORT0_ISINK_CLK.c **** #if defined CYREG_PERI_DIV_CMD
  98:Generated_Source\PSoC4/PDSS_PORT0_ISINK_CLK.c **** 
  99:Generated_Source\PSoC4/PDSS_PORT0_ISINK_CLK.c ****     /* Make sure any previous start command has finished. */
 100:Generated_Source\PSoC4/PDSS_PORT0_ISINK_CLK.c ****     while((PDSS_PORT0_ISINK_CLK_CMD_REG & PDSS_PORT0_ISINK_CLK_CMD_ENABLE_MASK) != 0u)
 351              		.loc 1 100 0
 352 0000 034A     		ldr	r2, .L10
 353              	.L8:
 354              		.loc 1 100 0 is_stmt 0 discriminator 1
 355 0002 1368     		ldr	r3, [r2]
 356 0004 002B     		cmp	r3, #0
 357 0006 FCDB     		blt	.L8
 101:Generated_Source\PSoC4/PDSS_PORT0_ISINK_CLK.c ****     {
 102:Generated_Source\PSoC4/PDSS_PORT0_ISINK_CLK.c ****     }
 103:Generated_Source\PSoC4/PDSS_PORT0_ISINK_CLK.c ****     
 104:Generated_Source\PSoC4/PDSS_PORT0_ISINK_CLK.c ****     /* Specify the target divider and it's alignment divider, and disable. */
 105:Generated_Source\PSoC4/PDSS_PORT0_ISINK_CLK.c ****     PDSS_PORT0_ISINK_CLK_CMD_REG =
 358              		.loc 1 105 0 is_stmt 1
 359 0008 024A     		ldr	r2, .L10+4
 360 000a 014B     		ldr	r3, .L10
 106:Generated_Source\PSoC4/PDSS_PORT0_ISINK_CLK.c ****         ((uint32)PDSS_PORT0_ISINK_CLK__DIV_ID << PDSS_PORT0_ISINK_CLK_CMD_DIV_SHIFT)|
 107:Generated_Source\PSoC4/PDSS_PORT0_ISINK_CLK.c ****         ((uint32)PDSS_PORT0_ISINK_CLK_CMD_DISABLE_MASK);
 108:Generated_Source\PSoC4/PDSS_PORT0_ISINK_CLK.c **** 
 109:Generated_Source\PSoC4/PDSS_PORT0_ISINK_CLK.c **** #else
 110:Generated_Source\PSoC4/PDSS_PORT0_ISINK_CLK.c **** 
 111:Generated_Source\PSoC4/PDSS_PORT0_ISINK_CLK.c ****     /* Clear the bit to disable the clock. */
 112:Generated_Source\PSoC4/PDSS_PORT0_ISINK_CLK.c ****     PDSS_PORT0_ISINK_CLK_ENABLE_REG &= (uint32)(~PDSS_PORT0_ISINK_CLK__ENABLE_MASK);
 113:Generated_Source\PSoC4/PDSS_PORT0_ISINK_CLK.c ****     
 114:Generated_Source\PSoC4/PDSS_PORT0_ISINK_CLK.c **** #endif /* CYREG_PERI_DIV_CMD */
 115:Generated_Source\PSoC4/PDSS_PORT0_ISINK_CLK.c **** }
 361              		.loc 1 115 0
 362              		@ sp needed
 105:Generated_Source\PSoC4/PDSS_PORT0_ISINK_CLK.c ****         ((uint32)PDSS_PORT0_ISINK_CLK__DIV_ID << PDSS_PORT0_ISINK_CLK_CMD_DIV_SHIFT)|
 363              		.loc 1 105 0
 364 000c 1A60     		str	r2, [r3]
 365              		.loc 1 115 0
 366 000e 7047     		bx	lr
 367              	.L11:
 368              		.align	2
 369              	.L10:
 370 0010 00000140 		.word	1073807360
 371 0014 81000040 		.word	1073741953
 372              		.cfi_endproc
 373              	.LFE1:
 374              		.size	PDSS_PORT0_ISINK_CLK_Stop, .-PDSS_PORT0_ISINK_CLK_Stop
ARM GAS  C:\Users\prana\AppData\Local\Temp\ccBhKGfs.s 			page 24


 375              		.section	.text.PDSS_PORT0_ISINK_CLK_SetFractionalDividerRegister,"ax",%progbits
 376              		.align	1
 377              		.global	PDSS_PORT0_ISINK_CLK_SetFractionalDividerRegister
 378              		.code	16
 379              		.thumb_func
 380              		.type	PDSS_PORT0_ISINK_CLK_SetFractionalDividerRegister, %function
 381              	PDSS_PORT0_ISINK_CLK_SetFractionalDividerRegister:
 382              	.LFB2:
 116:Generated_Source\PSoC4/PDSS_PORT0_ISINK_CLK.c **** 
 117:Generated_Source\PSoC4/PDSS_PORT0_ISINK_CLK.c **** 
 118:Generated_Source\PSoC4/PDSS_PORT0_ISINK_CLK.c **** /*******************************************************************************
 119:Generated_Source\PSoC4/PDSS_PORT0_ISINK_CLK.c **** * Function Name: PDSS_PORT0_ISINK_CLK_SetFractionalDividerRegister
 120:Generated_Source\PSoC4/PDSS_PORT0_ISINK_CLK.c **** ********************************************************************************
 121:Generated_Source\PSoC4/PDSS_PORT0_ISINK_CLK.c **** *
 122:Generated_Source\PSoC4/PDSS_PORT0_ISINK_CLK.c **** * Summary:
 123:Generated_Source\PSoC4/PDSS_PORT0_ISINK_CLK.c **** *  Modifies the clock divider and the fractional divider.
 124:Generated_Source\PSoC4/PDSS_PORT0_ISINK_CLK.c **** *
 125:Generated_Source\PSoC4/PDSS_PORT0_ISINK_CLK.c **** * Parameters:
 126:Generated_Source\PSoC4/PDSS_PORT0_ISINK_CLK.c **** *  clkDivider:  Divider register value (0-65535). This value is NOT the
 127:Generated_Source\PSoC4/PDSS_PORT0_ISINK_CLK.c **** *    divider; the clock hardware divides by clkDivider plus one. For example,
 128:Generated_Source\PSoC4/PDSS_PORT0_ISINK_CLK.c **** *    to divide the clock by 2, this parameter should be set to 1.
 129:Generated_Source\PSoC4/PDSS_PORT0_ISINK_CLK.c **** *  fracDivider:  Fractional Divider register value (0-31).
 130:Generated_Source\PSoC4/PDSS_PORT0_ISINK_CLK.c **** * Returns:
 131:Generated_Source\PSoC4/PDSS_PORT0_ISINK_CLK.c **** *  None
 132:Generated_Source\PSoC4/PDSS_PORT0_ISINK_CLK.c **** *
 133:Generated_Source\PSoC4/PDSS_PORT0_ISINK_CLK.c **** *******************************************************************************/
 134:Generated_Source\PSoC4/PDSS_PORT0_ISINK_CLK.c **** void PDSS_PORT0_ISINK_CLK_SetFractionalDividerRegister(uint16 clkDivider, uint8 clkFractional)
 135:Generated_Source\PSoC4/PDSS_PORT0_ISINK_CLK.c **** {
 383              		.loc 1 135 0
 384              		.cfi_startproc
 385              		@ args = 0, pretend = 0, frame = 0
 386              		@ frame_needed = 0, uses_anonymous_args = 0
 387              	.LVL2:
 136:Generated_Source\PSoC4/PDSS_PORT0_ISINK_CLK.c ****     uint32 maskVal;
 137:Generated_Source\PSoC4/PDSS_PORT0_ISINK_CLK.c ****     uint32 regVal;
 138:Generated_Source\PSoC4/PDSS_PORT0_ISINK_CLK.c ****     
 139:Generated_Source\PSoC4/PDSS_PORT0_ISINK_CLK.c **** #if defined (PDSS_PORT0_ISINK_CLK__FRAC_MASK) || defined (CYREG_PERI_DIV_CMD)
 140:Generated_Source\PSoC4/PDSS_PORT0_ISINK_CLK.c ****     
 141:Generated_Source\PSoC4/PDSS_PORT0_ISINK_CLK.c **** 	/* get all but divider bits */
 142:Generated_Source\PSoC4/PDSS_PORT0_ISINK_CLK.c ****     maskVal = PDSS_PORT0_ISINK_CLK_DIV_REG & 
 143:Generated_Source\PSoC4/PDSS_PORT0_ISINK_CLK.c ****                     (uint32)(~(uint32)(PDSS_PORT0_ISINK_CLK_DIV_INT_MASK | PDSS_PORT0_ISINK_CLK_DIV
 144:Generated_Source\PSoC4/PDSS_PORT0_ISINK_CLK.c **** 	/* combine mask and new divider vals into 32-bit value */
 145:Generated_Source\PSoC4/PDSS_PORT0_ISINK_CLK.c ****     regVal = maskVal |
 388              		.loc 1 145 0
 389 0000 FF22     		movs	r2, #255
 390 0002 C900     		lsls	r1, r1, #3
 391              	.LVL3:
 392 0004 1140     		ands	r1, r2
 393 0006 0202     		lsls	r2, r0, #8
 394 0008 1143     		orrs	r1, r2
 395 000a 0723     		movs	r3, #7
 396 000c 0800     		movs	r0, r1
 397              	.LVL4:
 135:Generated_Source\PSoC4/PDSS_PORT0_ISINK_CLK.c ****     uint32 maskVal;
 398              		.loc 1 135 0
 399 000e 30B5     		push	{r4, r5, lr}
 400              		.cfi_def_cfa_offset 12
ARM GAS  C:\Users\prana\AppData\Local\Temp\ccBhKGfs.s 			page 25


 401              		.cfi_offset 4, -12
 402              		.cfi_offset 5, -8
 403              		.cfi_offset 14, -4
 142:Generated_Source\PSoC4/PDSS_PORT0_ISINK_CLK.c ****                     (uint32)(~(uint32)(PDSS_PORT0_ISINK_CLK_DIV_INT_MASK | PDSS_PORT0_ISINK_CLK_DIV
 404              		.loc 1 142 0
 405 0010 024C     		ldr	r4, .L13
 146:Generated_Source\PSoC4/PDSS_PORT0_ISINK_CLK.c ****         ((uint32)((uint32)clkDivider <<  PDSS_PORT0_ISINK_CLK_DIV_INT_SHIFT) & PDSS_PORT0_ISINK_CLK
 147:Generated_Source\PSoC4/PDSS_PORT0_ISINK_CLK.c ****         ((uint32)((uint32)clkFractional << PDSS_PORT0_ISINK_CLK_DIV_FRAC_SHIFT) & PDSS_PORT0_ISINK_
 148:Generated_Source\PSoC4/PDSS_PORT0_ISINK_CLK.c ****     
 149:Generated_Source\PSoC4/PDSS_PORT0_ISINK_CLK.c **** #else
 150:Generated_Source\PSoC4/PDSS_PORT0_ISINK_CLK.c ****     /* get all but integer divider bits */
 151:Generated_Source\PSoC4/PDSS_PORT0_ISINK_CLK.c ****     maskVal = PDSS_PORT0_ISINK_CLK_DIV_REG & (uint32)(~(uint32)PDSS_PORT0_ISINK_CLK__DIVIDER_MASK);
 152:Generated_Source\PSoC4/PDSS_PORT0_ISINK_CLK.c ****     /* combine mask and new divider val into 32-bit value */
 153:Generated_Source\PSoC4/PDSS_PORT0_ISINK_CLK.c ****     regVal = clkDivider | maskVal;
 154:Generated_Source\PSoC4/PDSS_PORT0_ISINK_CLK.c ****     
 155:Generated_Source\PSoC4/PDSS_PORT0_ISINK_CLK.c **** #endif /* PDSS_PORT0_ISINK_CLK__FRAC_MASK || CYREG_PERI_DIV_CMD */
 156:Generated_Source\PSoC4/PDSS_PORT0_ISINK_CLK.c **** 
 157:Generated_Source\PSoC4/PDSS_PORT0_ISINK_CLK.c ****     PDSS_PORT0_ISINK_CLK_DIV_REG = regVal;
 158:Generated_Source\PSoC4/PDSS_PORT0_ISINK_CLK.c **** }
 406              		.loc 1 158 0
 407              		@ sp needed
 142:Generated_Source\PSoC4/PDSS_PORT0_ISINK_CLK.c ****                     (uint32)(~(uint32)(PDSS_PORT0_ISINK_CLK_DIV_INT_MASK | PDSS_PORT0_ISINK_CLK_DIV
 408              		.loc 1 142 0
 409 0012 2568     		ldr	r5, [r4]
 410              	.LVL5:
 145:Generated_Source\PSoC4/PDSS_PORT0_ISINK_CLK.c ****         ((uint32)((uint32)clkDivider <<  PDSS_PORT0_ISINK_CLK_DIV_INT_SHIFT) & PDSS_PORT0_ISINK_CLK
 411              		.loc 1 145 0
 412 0014 2B40     		ands	r3, r5
 413              	.LVL6:
 414 0016 1843     		orrs	r0, r3
 415              	.LVL7:
 157:Generated_Source\PSoC4/PDSS_PORT0_ISINK_CLK.c **** }
 416              		.loc 1 157 0
 417 0018 2060     		str	r0, [r4]
 418              		.loc 1 158 0
 419 001a 30BD     		pop	{r4, r5, pc}
 420              	.L14:
 421              		.align	2
 422              	.L13:
 423 001c 04040140 		.word	1073808388
 424              		.cfi_endproc
 425              	.LFE2:
 426              		.size	PDSS_PORT0_ISINK_CLK_SetFractionalDividerRegister, .-PDSS_PORT0_ISINK_CLK_SetFractionalDivid
 427              		.section	.text.PDSS_PORT0_ISINK_CLK_GetDividerRegister,"ax",%progbits
 428              		.align	1
 429              		.global	PDSS_PORT0_ISINK_CLK_GetDividerRegister
 430              		.code	16
 431              		.thumb_func
 432              		.type	PDSS_PORT0_ISINK_CLK_GetDividerRegister, %function
 433              	PDSS_PORT0_ISINK_CLK_GetDividerRegister:
 434              	.LFB3:
 159:Generated_Source\PSoC4/PDSS_PORT0_ISINK_CLK.c **** 
 160:Generated_Source\PSoC4/PDSS_PORT0_ISINK_CLK.c **** 
 161:Generated_Source\PSoC4/PDSS_PORT0_ISINK_CLK.c **** /*******************************************************************************
 162:Generated_Source\PSoC4/PDSS_PORT0_ISINK_CLK.c **** * Function Name: PDSS_PORT0_ISINK_CLK_GetDividerRegister
 163:Generated_Source\PSoC4/PDSS_PORT0_ISINK_CLK.c **** ********************************************************************************
 164:Generated_Source\PSoC4/PDSS_PORT0_ISINK_CLK.c **** *
ARM GAS  C:\Users\prana\AppData\Local\Temp\ccBhKGfs.s 			page 26


 165:Generated_Source\PSoC4/PDSS_PORT0_ISINK_CLK.c **** * Summary:
 166:Generated_Source\PSoC4/PDSS_PORT0_ISINK_CLK.c **** *  Gets the clock divider register value.
 167:Generated_Source\PSoC4/PDSS_PORT0_ISINK_CLK.c **** *
 168:Generated_Source\PSoC4/PDSS_PORT0_ISINK_CLK.c **** * Parameters:
 169:Generated_Source\PSoC4/PDSS_PORT0_ISINK_CLK.c **** *  None
 170:Generated_Source\PSoC4/PDSS_PORT0_ISINK_CLK.c **** *
 171:Generated_Source\PSoC4/PDSS_PORT0_ISINK_CLK.c **** * Returns:
 172:Generated_Source\PSoC4/PDSS_PORT0_ISINK_CLK.c **** *  Divide value of the clock minus 1. For example, if the clock is set to
 173:Generated_Source\PSoC4/PDSS_PORT0_ISINK_CLK.c **** *  divide by 2, the return value will be 1.
 174:Generated_Source\PSoC4/PDSS_PORT0_ISINK_CLK.c **** *
 175:Generated_Source\PSoC4/PDSS_PORT0_ISINK_CLK.c **** *******************************************************************************/
 176:Generated_Source\PSoC4/PDSS_PORT0_ISINK_CLK.c **** uint16 PDSS_PORT0_ISINK_CLK_GetDividerRegister(void)
 177:Generated_Source\PSoC4/PDSS_PORT0_ISINK_CLK.c **** {
 435              		.loc 1 177 0
 436              		.cfi_startproc
 437              		@ args = 0, pretend = 0, frame = 0
 438              		@ frame_needed = 0, uses_anonymous_args = 0
 439              		@ link register save eliminated.
 178:Generated_Source\PSoC4/PDSS_PORT0_ISINK_CLK.c ****     return (uint16)((PDSS_PORT0_ISINK_CLK_DIV_REG & PDSS_PORT0_ISINK_CLK_DIV_INT_MASK)
 440              		.loc 1 178 0
 441 0000 024B     		ldr	r3, .L16
 179:Generated_Source\PSoC4/PDSS_PORT0_ISINK_CLK.c ****         >> PDSS_PORT0_ISINK_CLK_DIV_INT_SHIFT);
 180:Generated_Source\PSoC4/PDSS_PORT0_ISINK_CLK.c **** }
 442              		.loc 1 180 0
 443              		@ sp needed
 178:Generated_Source\PSoC4/PDSS_PORT0_ISINK_CLK.c ****     return (uint16)((PDSS_PORT0_ISINK_CLK_DIV_REG & PDSS_PORT0_ISINK_CLK_DIV_INT_MASK)
 444              		.loc 1 178 0
 445 0002 1868     		ldr	r0, [r3]
 446 0004 000A     		lsrs	r0, r0, #8
 447 0006 80B2     		uxth	r0, r0
 448              		.loc 1 180 0
 449 0008 7047     		bx	lr
 450              	.L17:
 451 000a C046     		.align	2
 452              	.L16:
 453 000c 04040140 		.word	1073808388
 454              		.cfi_endproc
 455              	.LFE3:
 456              		.size	PDSS_PORT0_ISINK_CLK_GetDividerRegister, .-PDSS_PORT0_ISINK_CLK_GetDividerRegister
 457              		.section	.text.PDSS_PORT0_ISINK_CLK_GetFractionalDividerRegister,"ax",%progbits
 458              		.align	1
 459              		.global	PDSS_PORT0_ISINK_CLK_GetFractionalDividerRegister
 460              		.code	16
 461              		.thumb_func
 462              		.type	PDSS_PORT0_ISINK_CLK_GetFractionalDividerRegister, %function
 463              	PDSS_PORT0_ISINK_CLK_GetFractionalDividerRegister:
 464              	.LFB4:
 181:Generated_Source\PSoC4/PDSS_PORT0_ISINK_CLK.c **** 
 182:Generated_Source\PSoC4/PDSS_PORT0_ISINK_CLK.c **** 
 183:Generated_Source\PSoC4/PDSS_PORT0_ISINK_CLK.c **** /*******************************************************************************
 184:Generated_Source\PSoC4/PDSS_PORT0_ISINK_CLK.c **** * Function Name: PDSS_PORT0_ISINK_CLK_GetFractionalDividerRegister
 185:Generated_Source\PSoC4/PDSS_PORT0_ISINK_CLK.c **** ********************************************************************************
 186:Generated_Source\PSoC4/PDSS_PORT0_ISINK_CLK.c **** *
 187:Generated_Source\PSoC4/PDSS_PORT0_ISINK_CLK.c **** * Summary:
 188:Generated_Source\PSoC4/PDSS_PORT0_ISINK_CLK.c **** *  Gets the clock fractional divider register value.
 189:Generated_Source\PSoC4/PDSS_PORT0_ISINK_CLK.c **** *
 190:Generated_Source\PSoC4/PDSS_PORT0_ISINK_CLK.c **** * Parameters:
ARM GAS  C:\Users\prana\AppData\Local\Temp\ccBhKGfs.s 			page 27


 191:Generated_Source\PSoC4/PDSS_PORT0_ISINK_CLK.c **** *  None
 192:Generated_Source\PSoC4/PDSS_PORT0_ISINK_CLK.c **** *
 193:Generated_Source\PSoC4/PDSS_PORT0_ISINK_CLK.c **** * Returns:
 194:Generated_Source\PSoC4/PDSS_PORT0_ISINK_CLK.c **** *  Fractional Divide value of the clock
 195:Generated_Source\PSoC4/PDSS_PORT0_ISINK_CLK.c **** *  0 if the fractional divider is not in use.
 196:Generated_Source\PSoC4/PDSS_PORT0_ISINK_CLK.c **** *
 197:Generated_Source\PSoC4/PDSS_PORT0_ISINK_CLK.c **** *******************************************************************************/
 198:Generated_Source\PSoC4/PDSS_PORT0_ISINK_CLK.c **** uint8 PDSS_PORT0_ISINK_CLK_GetFractionalDividerRegister(void)
 199:Generated_Source\PSoC4/PDSS_PORT0_ISINK_CLK.c **** {
 465              		.loc 1 199 0
 466              		.cfi_startproc
 467              		@ args = 0, pretend = 0, frame = 0
 468              		@ frame_needed = 0, uses_anonymous_args = 0
 469              		@ link register save eliminated.
 200:Generated_Source\PSoC4/PDSS_PORT0_ISINK_CLK.c **** #if defined (PDSS_PORT0_ISINK_CLK__FRAC_MASK)
 201:Generated_Source\PSoC4/PDSS_PORT0_ISINK_CLK.c ****     /* return fractional divider bits */
 202:Generated_Source\PSoC4/PDSS_PORT0_ISINK_CLK.c ****     return (uint8)((PDSS_PORT0_ISINK_CLK_DIV_REG & PDSS_PORT0_ISINK_CLK_DIV_FRAC_MASK)
 470              		.loc 1 202 0
 471 0000 024B     		ldr	r3, .L19
 203:Generated_Source\PSoC4/PDSS_PORT0_ISINK_CLK.c ****         >> PDSS_PORT0_ISINK_CLK_DIV_FRAC_SHIFT);
 204:Generated_Source\PSoC4/PDSS_PORT0_ISINK_CLK.c **** #else
 205:Generated_Source\PSoC4/PDSS_PORT0_ISINK_CLK.c ****     return 0u;
 206:Generated_Source\PSoC4/PDSS_PORT0_ISINK_CLK.c **** #endif /* PDSS_PORT0_ISINK_CLK__FRAC_MASK */
 207:Generated_Source\PSoC4/PDSS_PORT0_ISINK_CLK.c **** }
 472              		.loc 1 207 0
 473              		@ sp needed
 202:Generated_Source\PSoC4/PDSS_PORT0_ISINK_CLK.c ****         >> PDSS_PORT0_ISINK_CLK_DIV_FRAC_SHIFT);
 474              		.loc 1 202 0
 475 0002 1868     		ldr	r0, [r3]
 476 0004 0006     		lsls	r0, r0, #24
 477 0006 C00E     		lsrs	r0, r0, #27
 478              		.loc 1 207 0
 479 0008 7047     		bx	lr
 480              	.L20:
 481 000a C046     		.align	2
 482              	.L19:
 483 000c 04040140 		.word	1073808388
 484              		.cfi_endproc
 485              	.LFE4:
 486              		.size	PDSS_PORT0_ISINK_CLK_GetFractionalDividerRegister, .-PDSS_PORT0_ISINK_CLK_GetFractionalDivid
 487              		.text
 488              	.Letext0:
 489              		.file 2 "Generated_Source\\PSoC4/cytypes.h"